SF:/Users/jaredreyes/Developer/minifly/minifly-api/src/config.rs
FN:100,_RNCNvNtNtCscDZMq9zvJMc_11minifly_api6config5testss_17test_invalid_port0B7_
FN:69,_RNCNvNtNtCscDZMq9zvJMc_11minifly_api6config5testss_18test_custom_config0B7_
FN:46,_RNCNvNtNtCscDZMq9zvJMc_11minifly_api6config5testss_19test_default_config0B7_
FN:122,_RNCNvNtNtCscDZMq9zvJMc_11minifly_api6config5testss_19test_partial_config0B7_
FN:111,_RNCNvNtNtCscDZMq9zvJMc_11minifly_api6config5testss_21test_invalid_dns_port0B7_
FN:16,_RNvMNtCscDZMq9zvJMc_11minifly_api6configNtB2_6Config8from_env
FN:19,_RNCNvMNtCscDZMq9zvJMc_11minifly_api6configNtB4_6Config8from_env0B6_
FN:25,_RNCNvMNtCscDZMq9zvJMc_11minifly_api6configNtB4_6Config8from_envs0_0B6_
FN:27,_RNCNvMNtCscDZMq9zvJMc_11minifly_api6configNtB4_6Config8from_envs1_0B6_
FN:29,_RNCNvMNtCscDZMq9zvJMc_11minifly_api6configNtB4_6Config8from_envs2_0B6_
FN:32,_RNCNvMNtCscDZMq9zvJMc_11minifly_api6configNtB4_6Config8from_envs3_0B6_
FN:22,_RNCNvMNtCscDZMq9zvJMc_11minifly_api6configNtB4_6Config8from_envs_0B6_
FN:16,_RNvMNtCslqHMLkZRd4y_11minifly_api6configNtB2_6Config8from_env
FN:19,_RNCNvMNtCslqHMLkZRd4y_11minifly_api6configNtB4_6Config8from_env0B6_
FN:25,_RNCNvMNtCslqHMLkZRd4y_11minifly_api6configNtB4_6Config8from_envs0_0B6_
FN:27,_RNCNvMNtCslqHMLkZRd4y_11minifly_api6configNtB4_6Config8from_envs1_0B6_
FN:29,_RNCNvMNtCslqHMLkZRd4y_11minifly_api6configNtB4_6Config8from_envs2_0B6_
FN:32,_RNCNvMNtCslqHMLkZRd4y_11minifly_api6configNtB4_6Config8from_envs3_0B6_
FN:22,_RNCNvMNtCslqHMLkZRd4y_11minifly_api6configNtB4_6Config8from_envs_0B6_
FN:19,_RNCNvMNtCs7k7ABQ2BjtQ_11minifly_api6configNtB4_6Config8from_env0B6_
FN:25,_RNCNvMNtCs7k7ABQ2BjtQ_11minifly_api6configNtB4_6Config8from_envs0_0B6_
FN:27,_RNCNvMNtCs7k7ABQ2BjtQ_11minifly_api6configNtB4_6Config8from_envs1_0B6_
FN:29,_RNCNvMNtCs7k7ABQ2BjtQ_11minifly_api6configNtB4_6Config8from_envs2_0B6_
FN:32,_RNCNvMNtCs7k7ABQ2BjtQ_11minifly_api6configNtB4_6Config8from_envs3_0B6_
FN:22,_RNCNvMNtCs7k7ABQ2BjtQ_11minifly_api6configNtB4_6Config8from_envs_0B6_
FN:16,_RNvMNtCs7k7ABQ2BjtQ_11minifly_api6configNtB2_6Config8from_env
FN:100,_RNCNvNtNtCs7k7ABQ2BjtQ_11minifly_api6config5testss_17test_invalid_port0B7_
FN:69,_RNCNvNtNtCs7k7ABQ2BjtQ_11minifly_api6config5testss_18test_custom_config0B7_
FN:46,_RNCNvNtNtCs7k7ABQ2BjtQ_11minifly_api6config5testss_19test_default_config0B7_
FN:122,_RNCNvNtNtCs7k7ABQ2BjtQ_11minifly_api6config5testss_19test_partial_config0B7_
FN:111,_RNCNvNtNtCs7k7ABQ2BjtQ_11minifly_api6config5testss_21test_invalid_dns_port0B7_
FNDA:1,_RNCNvNtNtCscDZMq9zvJMc_11minifly_api6config5testss_17test_invalid_port0B7_
FNDA:1,_RNCNvNtNtCscDZMq9zvJMc_11minifly_api6config5testss_18test_custom_config0B7_
FNDA:1,_RNCNvNtNtCscDZMq9zvJMc_11minifly_api6config5testss_19test_default_config0B7_
FNDA:1,_RNCNvNtNtCscDZMq9zvJMc_11minifly_api6config5testss_19test_partial_config0B7_
FNDA:1,_RNCNvNtNtCscDZMq9zvJMc_11minifly_api6config5testss_21test_invalid_dns_port0B7_
FNDA:5,_RNvMNtCscDZMq9zvJMc_11minifly_api6configNtB2_6Config8from_env
FNDA:2,_RNCNvMNtCscDZMq9zvJMc_11minifly_api6configNtB4_6Config8from_env0B6_
FNDA:2,_RNCNvMNtCscDZMq9zvJMc_11minifly_api6configNtB4_6Config8from_envs0_0B6_
FNDA:3,_RNCNvMNtCscDZMq9zvJMc_11minifly_api6configNtB4_6Config8from_envs1_0B6_
FNDA:2,_RNCNvMNtCscDZMq9zvJMc_11minifly_api6configNtB4_6Config8from_envs2_0B6_
FNDA:2,_RNCNvMNtCscDZMq9zvJMc_11minifly_api6configNtB4_6Config8from_envs3_0B6_
FNDA:3,_RNCNvMNtCscDZMq9zvJMc_11minifly_api6configNtB4_6Config8from_envs_0B6_
FNDA:0,_RNvMNtCslqHMLkZRd4y_11minifly_api6configNtB2_6Config8from_env
FNDA:0,_RNCNvMNtCslqHMLkZRd4y_11minifly_api6configNtB4_6Config8from_env0B6_
FNDA:0,_RNCNvMNtCslqHMLkZRd4y_11minifly_api6configNtB4_6Config8from_envs0_0B6_
FNDA:0,_RNCNvMNtCslqHMLkZRd4y_11minifly_api6configNtB4_6Config8from_envs1_0B6_
FNDA:0,_RNCNvMNtCslqHMLkZRd4y_11minifly_api6configNtB4_6Config8from_envs2_0B6_
FNDA:0,_RNCNvMNtCslqHMLkZRd4y_11minifly_api6configNtB4_6Config8from_envs3_0B6_
FNDA:0,_RNCNvMNtCslqHMLkZRd4y_11minifly_api6configNtB4_6Config8from_envs_0B6_
FNDA:2,_RNCNvMNtCs7k7ABQ2BjtQ_11minifly_api6configNtB4_6Config8from_env0B6_
FNDA:2,_RNCNvMNtCs7k7ABQ2BjtQ_11minifly_api6configNtB4_6Config8from_envs0_0B6_
FNDA:3,_RNCNvMNtCs7k7ABQ2BjtQ_11minifly_api6configNtB4_6Config8from_envs1_0B6_
FNDA:2,_RNCNvMNtCs7k7ABQ2BjtQ_11minifly_api6configNtB4_6Config8from_envs2_0B6_
FNDA:2,_RNCNvMNtCs7k7ABQ2BjtQ_11minifly_api6configNtB4_6Config8from_envs3_0B6_
FNDA:3,_RNCNvMNtCs7k7ABQ2BjtQ_11minifly_api6configNtB4_6Config8from_envs_0B6_
FNDA:5,_RNvMNtCs7k7ABQ2BjtQ_11minifly_api6configNtB2_6Config8from_env
FNDA:1,_RNCNvNtNtCs7k7ABQ2BjtQ_11minifly_api6config5testss_17test_invalid_port0B7_
FNDA:1,_RNCNvNtNtCs7k7ABQ2BjtQ_11minifly_api6config5testss_18test_custom_config0B7_
FNDA:1,_RNCNvNtNtCs7k7ABQ2BjtQ_11minifly_api6config5testss_19test_default_config0B7_
FNDA:1,_RNCNvNtNtCs7k7ABQ2BjtQ_11minifly_api6config5testss_19test_partial_config0B7_
FNDA:1,_RNCNvNtNtCs7k7ABQ2BjtQ_11minifly_api6config5testss_21test_invalid_dns_port0B7_
FNF:12
FNH:12
DA:16,10
DA:17,10
DA:18,10
DA:19,10
DA:20,10
DA:21,8
DA:22,8
DA:23,8
DA:24,8
DA:25,8
DA:26,8
DA:27,8
DA:28,8
DA:29,8
DA:30,8
DA:31,6
DA:32,6
DA:33,6
DA:35,10
DA:46,2
DA:47,2
DA:48,2
DA:49,2
DA:50,2
DA:51,2
DA:52,2
DA:53,2
DA:54,2
DA:55,2
DA:56,2
DA:57,2
DA:58,2
DA:59,2
DA:60,2
DA:61,2
DA:62,2
DA:63,2
DA:64,2
DA:69,2
DA:70,2
DA:71,2
DA:72,2
DA:73,2
DA:74,2
DA:75,2
DA:76,2
DA:77,2
DA:78,2
DA:79,2
DA:80,2
DA:81,2
DA:82,2
DA:83,2
DA:84,2
DA:85,2
DA:86,2
DA:89,2
DA:90,2
DA:91,2
DA:92,2
DA:93,2
DA:94,2
DA:95,2
DA:100,2
DA:101,2
DA:102,2
DA:103,2
DA:104,2
DA:106,2
DA:111,2
DA:112,2
DA:113,2
DA:114,2
DA:115,2
DA:117,2
DA:122,2
DA:123,2
DA:124,2
DA:125,2
DA:126,2
DA:127,2
DA:128,2
DA:129,2
DA:130,2
DA:133,2
DA:134,2
DA:135,2
DA:136,2
DA:137,2
DA:139,2
DA:140,2
BRF:0
BRH:0
LF:97
LH:97
end_of_record
SF:/Users/jaredreyes/Developer/minifly/minifly-api/src/docker.rs
FN:159,_RNCNCNvMNtCscDZMq9zvJMc_11minifly_api6dockerNtB6_12DockerClient27get_container_id_by_machine00B8_
FN:162,_RNCNvMNtCscDZMq9zvJMc_11minifly_api6dockerNtB4_12DockerClient10pull_image0B6_
FN:135,_RNCNvMNtCscDZMq9zvJMc_11minifly_api6dockerNtB4_12DockerClient11stream_logs0B6_
FN:68,_RNCNvMNtCscDZMq9zvJMc_11minifly_api6dockerNtB4_12DockerClient14stop_container0B6_
FN:115,_RNCNvMNtCscDZMq9zvJMc_11minifly_api6dockerNtB4_12DockerClient15list_containers0B6_
FN:57,_RNCNvMNtCscDZMq9zvJMc_11minifly_api6dockerNtB4_12DockerClient15start_container0B6_
FN:34,_RNCNvMNtCscDZMq9zvJMc_11minifly_api6dockerNtB4_12DockerClient16create_container0B6_
FN:83,_RNCNvMNtCscDZMq9zvJMc_11minifly_api6dockerNtB4_12DockerClient16remove_container0B6_
FN:99,_RNCNvMNtCscDZMq9zvJMc_11minifly_api6dockerNtB4_12DockerClient17inspect_container0B6_
FN:213,_RNCNvMNtCscDZMq9zvJMc_11minifly_api6dockerNtB4_12DockerClient22build_container_config0B6_
FN:245,_RNCNvMNtCscDZMq9zvJMc_11minifly_api6dockerNtB4_12DockerClient22build_container_configs_0B6_
FN:151,_RNCNvMNtCscDZMq9zvJMc_11minifly_api6dockerNtB4_12DockerClient27get_container_id_by_machine0B6_
FN:107,_RNCNvMNtCscDZMq9zvJMc_11minifly_api6dockerNtB4_12DockerClient7version0B6_
FN:162,_RNvMNtCscDZMq9zvJMc_11minifly_api6dockerNtB2_12DockerClient10pull_image
FN:129,_RNvMNtCscDZMq9zvJMc_11minifly_api6dockerNtB2_12DockerClient11stream_logs
FN:68,_RNvMNtCscDZMq9zvJMc_11minifly_api6dockerNtB2_12DockerClient14stop_container
FN:115,_RNvMNtCscDZMq9zvJMc_11minifly_api6dockerNtB2_12DockerClient15list_containers
FN:57,_RNvMNtCscDZMq9zvJMc_11minifly_api6dockerNtB2_12DockerClient15start_container
FN:29,_RNvMNtCscDZMq9zvJMc_11minifly_api6dockerNtB2_12DockerClient16create_container
FN:83,_RNvMNtCscDZMq9zvJMc_11minifly_api6dockerNtB2_12DockerClient16remove_container
FN:99,_RNvMNtCscDZMq9zvJMc_11minifly_api6dockerNtB2_12DockerClient17inspect_container
FN:275,_RNvMNtCscDZMq9zvJMc_11minifly_api6dockerNtB2_12DockerClient19set_resource_limits
FN:191,_RNvMNtCscDZMq9zvJMc_11minifly_api6dockerNtB2_12DockerClient22build_container_config
FN:151,_RNvMNtCscDZMq9zvJMc_11minifly_api6dockerNtB2_12DockerClient27get_container_id_by_machine
FN:19,_RNvMNtCscDZMq9zvJMc_11minifly_api6dockerNtB2_12DockerClient3new
FN:107,_RNvMNtCscDZMq9zvJMc_11minifly_api6dockerNtB2_12DockerClient7version
FN:99,_RNCNvMNtCslqHMLkZRd4y_11minifly_api6dockerNtB4_12DockerClient17inspect_container0B6_
FN:99,_RNvMNtCslqHMLkZRd4y_11minifly_api6dockerNtB2_12DockerClient17inspect_container
FN:159,_RNCNCNvMNtCslqHMLkZRd4y_11minifly_api6dockerNtB6_12DockerClient27get_container_id_by_machine00B8_
FN:162,_RNCNvMNtCslqHMLkZRd4y_11minifly_api6dockerNtB4_12DockerClient10pull_image0B6_
FN:135,_RNCNvMNtCslqHMLkZRd4y_11minifly_api6dockerNtB4_12DockerClient11stream_logs0B6_
FN:68,_RNCNvMNtCslqHMLkZRd4y_11minifly_api6dockerNtB4_12DockerClient14stop_container0B6_
FN:115,_RNCNvMNtCslqHMLkZRd4y_11minifly_api6dockerNtB4_12DockerClient15list_containers0B6_
FN:57,_RNCNvMNtCslqHMLkZRd4y_11minifly_api6dockerNtB4_12DockerClient15start_container0B6_
FN:34,_RNCNvMNtCslqHMLkZRd4y_11minifly_api6dockerNtB4_12DockerClient16create_container0B6_
FN:83,_RNCNvMNtCslqHMLkZRd4y_11minifly_api6dockerNtB4_12DockerClient16remove_container0B6_
FN:213,_RNCNvMNtCslqHMLkZRd4y_11minifly_api6dockerNtB4_12DockerClient22build_container_config0B6_
FN:245,_RNCNvMNtCslqHMLkZRd4y_11minifly_api6dockerNtB4_12DockerClient22build_container_configs_0B6_
FN:151,_RNCNvMNtCslqHMLkZRd4y_11minifly_api6dockerNtB4_12DockerClient27get_container_id_by_machine0B6_
FN:107,_RNCNvMNtCslqHMLkZRd4y_11minifly_api6dockerNtB4_12DockerClient7version0B6_
FN:162,_RNvMNtCslqHMLkZRd4y_11minifly_api6dockerNtB2_12DockerClient10pull_image
FN:129,_RNvMNtCslqHMLkZRd4y_11minifly_api6dockerNtB2_12DockerClient11stream_logs
FN:68,_RNvMNtCslqHMLkZRd4y_11minifly_api6dockerNtB2_12DockerClient14stop_container
FN:115,_RNvMNtCslqHMLkZRd4y_11minifly_api6dockerNtB2_12DockerClient15list_containers
FN:57,_RNvMNtCslqHMLkZRd4y_11minifly_api6dockerNtB2_12DockerClient15start_container
FN:29,_RNvMNtCslqHMLkZRd4y_11minifly_api6dockerNtB2_12DockerClient16create_container
FN:83,_RNvMNtCslqHMLkZRd4y_11minifly_api6dockerNtB2_12DockerClient16remove_container
FN:275,_RNvMNtCslqHMLkZRd4y_11minifly_api6dockerNtB2_12DockerClient19set_resource_limits
FN:191,_RNvMNtCslqHMLkZRd4y_11minifly_api6dockerNtB2_12DockerClient22build_container_config
FN:151,_RNvMNtCslqHMLkZRd4y_11minifly_api6dockerNtB2_12DockerClient27get_container_id_by_machine
FN:19,_RNvMNtCslqHMLkZRd4y_11minifly_api6dockerNtB2_12DockerClient3new
FN:107,_RNvMNtCslqHMLkZRd4y_11minifly_api6dockerNtB2_12DockerClient7version
FN:159,_RNCNCNvMNtCs7k7ABQ2BjtQ_11minifly_api6dockerNtB6_12DockerClient27get_container_id_by_machine00B8_
FN:162,_RNCNvMNtCs7k7ABQ2BjtQ_11minifly_api6dockerNtB4_12DockerClient10pull_image0B6_
FN:135,_RNCNvMNtCs7k7ABQ2BjtQ_11minifly_api6dockerNtB4_12DockerClient11stream_logs0B6_
FN:68,_RNCNvMNtCs7k7ABQ2BjtQ_11minifly_api6dockerNtB4_12DockerClient14stop_container0B6_
FN:115,_RNCNvMNtCs7k7ABQ2BjtQ_11minifly_api6dockerNtB4_12DockerClient15list_containers0B6_
FN:57,_RNCNvMNtCs7k7ABQ2BjtQ_11minifly_api6dockerNtB4_12DockerClient15start_container0B6_
FN:34,_RNCNvMNtCs7k7ABQ2BjtQ_11minifly_api6dockerNtB4_12DockerClient16create_container0B6_
FN:83,_RNCNvMNtCs7k7ABQ2BjtQ_11minifly_api6dockerNtB4_12DockerClient16remove_container0B6_
FN:99,_RNCNvMNtCs7k7ABQ2BjtQ_11minifly_api6dockerNtB4_12DockerClient17inspect_container0B6_
FN:213,_RNCNvMNtCs7k7ABQ2BjtQ_11minifly_api6dockerNtB4_12DockerClient22build_container_config0B6_
FN:245,_RNCNvMNtCs7k7ABQ2BjtQ_11minifly_api6dockerNtB4_12DockerClient22build_container_configs_0B6_
FN:151,_RNCNvMNtCs7k7ABQ2BjtQ_11minifly_api6dockerNtB4_12DockerClient27get_container_id_by_machine0B6_
FN:107,_RNCNvMNtCs7k7ABQ2BjtQ_11minifly_api6dockerNtB4_12DockerClient7version0B6_
FN:162,_RNvMNtCs7k7ABQ2BjtQ_11minifly_api6dockerNtB2_12DockerClient10pull_image
FN:129,_RNvMNtCs7k7ABQ2BjtQ_11minifly_api6dockerNtB2_12DockerClient11stream_logs
FN:68,_RNvMNtCs7k7ABQ2BjtQ_11minifly_api6dockerNtB2_12DockerClient14stop_container
FN:115,_RNvMNtCs7k7ABQ2BjtQ_11minifly_api6dockerNtB2_12DockerClient15list_containers
FN:57,_RNvMNtCs7k7ABQ2BjtQ_11minifly_api6dockerNtB2_12DockerClient15start_container
FN:29,_RNvMNtCs7k7ABQ2BjtQ_11minifly_api6dockerNtB2_12DockerClient16create_container
FN:83,_RNvMNtCs7k7ABQ2BjtQ_11minifly_api6dockerNtB2_12DockerClient16remove_container
FN:99,_RNvMNtCs7k7ABQ2BjtQ_11minifly_api6dockerNtB2_12DockerClient17inspect_container
FN:275,_RNvMNtCs7k7ABQ2BjtQ_11minifly_api6dockerNtB2_12DockerClient19set_resource_limits
FN:191,_RNvMNtCs7k7ABQ2BjtQ_11minifly_api6dockerNtB2_12DockerClient22build_container_config
FN:151,_RNvMNtCs7k7ABQ2BjtQ_11minifly_api6dockerNtB2_12DockerClient27get_container_id_by_machine
FN:19,_RNvMNtCs7k7ABQ2BjtQ_11minifly_api6dockerNtB2_12DockerClient3new
FN:107,_RNvMNtCs7k7ABQ2BjtQ_11minifly_api6dockerNtB2_12DockerClient7version
FNDA:0,_RNCNCNvMNtCscDZMq9zvJMc_11minifly_api6dockerNtB6_12DockerClient27get_container_id_by_machine00B8_
FNDA:0,_RNCNvMNtCscDZMq9zvJMc_11minifly_api6dockerNtB4_12DockerClient10pull_image0B6_
FNDA:0,_RNCNvMNtCscDZMq9zvJMc_11minifly_api6dockerNtB4_12DockerClient11stream_logs0B6_
FNDA:0,_RNCNvMNtCscDZMq9zvJMc_11minifly_api6dockerNtB4_12DockerClient14stop_container0B6_
FNDA:0,_RNCNvMNtCscDZMq9zvJMc_11minifly_api6dockerNtB4_12DockerClient15list_containers0B6_
FNDA:0,_RNCNvMNtCscDZMq9zvJMc_11minifly_api6dockerNtB4_12DockerClient15start_container0B6_
FNDA:0,_RNCNvMNtCscDZMq9zvJMc_11minifly_api6dockerNtB4_12DockerClient16create_container0B6_
FNDA:0,_RNCNvMNtCscDZMq9zvJMc_11minifly_api6dockerNtB4_12DockerClient16remove_container0B6_
FNDA:0,_RNCNvMNtCscDZMq9zvJMc_11minifly_api6dockerNtB4_12DockerClient17inspect_container0B6_
FNDA:0,_RNCNvMNtCscDZMq9zvJMc_11minifly_api6dockerNtB4_12DockerClient22build_container_config0B6_
FNDA:0,_RNCNvMNtCscDZMq9zvJMc_11minifly_api6dockerNtB4_12DockerClient22build_container_configs_0B6_
FNDA:0,_RNCNvMNtCscDZMq9zvJMc_11minifly_api6dockerNtB4_12DockerClient27get_container_id_by_machine0B6_
FNDA:0,_RNCNvMNtCscDZMq9zvJMc_11minifly_api6dockerNtB4_12DockerClient7version0B6_
FNDA:0,_RNvMNtCscDZMq9zvJMc_11minifly_api6dockerNtB2_12DockerClient10pull_image
FNDA:0,_RNvMNtCscDZMq9zvJMc_11minifly_api6dockerNtB2_12DockerClient11stream_logs
FNDA:0,_RNvMNtCscDZMq9zvJMc_11minifly_api6dockerNtB2_12DockerClient14stop_container
FNDA:0,_RNvMNtCscDZMq9zvJMc_11minifly_api6dockerNtB2_12DockerClient15list_containers
FNDA:0,_RNvMNtCscDZMq9zvJMc_11minifly_api6dockerNtB2_12DockerClient15start_container
FNDA:0,_RNvMNtCscDZMq9zvJMc_11minifly_api6dockerNtB2_12DockerClient16create_container
FNDA:0,_RNvMNtCscDZMq9zvJMc_11minifly_api6dockerNtB2_12DockerClient16remove_container
FNDA:0,_RNvMNtCscDZMq9zvJMc_11minifly_api6dockerNtB2_12DockerClient17inspect_container
FNDA:0,_RNvMNtCscDZMq9zvJMc_11minifly_api6dockerNtB2_12DockerClient19set_resource_limits
FNDA:0,_RNvMNtCscDZMq9zvJMc_11minifly_api6dockerNtB2_12DockerClient22build_container_config
FNDA:0,_RNvMNtCscDZMq9zvJMc_11minifly_api6dockerNtB2_12DockerClient27get_container_id_by_machine
FNDA:0,_RNvMNtCscDZMq9zvJMc_11minifly_api6dockerNtB2_12DockerClient3new
FNDA:0,_RNvMNtCscDZMq9zvJMc_11minifly_api6dockerNtB2_12DockerClient7version
FNDA:0,_RNCNvMNtCslqHMLkZRd4y_11minifly_api6dockerNtB4_12DockerClient17inspect_container0B6_
FNDA:0,_RNvMNtCslqHMLkZRd4y_11minifly_api6dockerNtB2_12DockerClient17inspect_container
FNDA:0,_RNCNCNvMNtCslqHMLkZRd4y_11minifly_api6dockerNtB6_12DockerClient27get_container_id_by_machine00B8_
FNDA:0,_RNCNvMNtCslqHMLkZRd4y_11minifly_api6dockerNtB4_12DockerClient10pull_image0B6_
FNDA:0,_RNCNvMNtCslqHMLkZRd4y_11minifly_api6dockerNtB4_12DockerClient11stream_logs0B6_
FNDA:0,_RNCNvMNtCslqHMLkZRd4y_11minifly_api6dockerNtB4_12DockerClient14stop_container0B6_
FNDA:0,_RNCNvMNtCslqHMLkZRd4y_11minifly_api6dockerNtB4_12DockerClient15list_containers0B6_
FNDA:0,_RNCNvMNtCslqHMLkZRd4y_11minifly_api6dockerNtB4_12DockerClient15start_container0B6_
FNDA:0,_RNCNvMNtCslqHMLkZRd4y_11minifly_api6dockerNtB4_12DockerClient16create_container0B6_
FNDA:0,_RNCNvMNtCslqHMLkZRd4y_11minifly_api6dockerNtB4_12DockerClient16remove_container0B6_
FNDA:0,_RNCNvMNtCslqHMLkZRd4y_11minifly_api6dockerNtB4_12DockerClient22build_container_config0B6_
FNDA:0,_RNCNvMNtCslqHMLkZRd4y_11minifly_api6dockerNtB4_12DockerClient22build_container_configs_0B6_
FNDA:0,_RNCNvMNtCslqHMLkZRd4y_11minifly_api6dockerNtB4_12DockerClient27get_container_id_by_machine0B6_
FNDA:0,_RNCNvMNtCslqHMLkZRd4y_11minifly_api6dockerNtB4_12DockerClient7version0B6_
FNDA:0,_RNvMNtCslqHMLkZRd4y_11minifly_api6dockerNtB2_12DockerClient10pull_image
FNDA:0,_RNvMNtCslqHMLkZRd4y_11minifly_api6dockerNtB2_12DockerClient11stream_logs
FNDA:0,_RNvMNtCslqHMLkZRd4y_11minifly_api6dockerNtB2_12DockerClient14stop_container
FNDA:0,_RNvMNtCslqHMLkZRd4y_11minifly_api6dockerNtB2_12DockerClient15list_containers
FNDA:0,_RNvMNtCslqHMLkZRd4y_11minifly_api6dockerNtB2_12DockerClient15start_container
FNDA:0,_RNvMNtCslqHMLkZRd4y_11minifly_api6dockerNtB2_12DockerClient16create_container
FNDA:0,_RNvMNtCslqHMLkZRd4y_11minifly_api6dockerNtB2_12DockerClient16remove_container
FNDA:0,_RNvMNtCslqHMLkZRd4y_11minifly_api6dockerNtB2_12DockerClient19set_resource_limits
FNDA:0,_RNvMNtCslqHMLkZRd4y_11minifly_api6dockerNtB2_12DockerClient22build_container_config
FNDA:0,_RNvMNtCslqHMLkZRd4y_11minifly_api6dockerNtB2_12DockerClient27get_container_id_by_machine
FNDA:0,_RNvMNtCslqHMLkZRd4y_11minifly_api6dockerNtB2_12DockerClient3new
FNDA:0,_RNvMNtCslqHMLkZRd4y_11minifly_api6dockerNtB2_12DockerClient7version
FNDA:0,_RNCNCNvMNtCs7k7ABQ2BjtQ_11minifly_api6dockerNtB6_12DockerClient27get_container_id_by_machine00B8_
FNDA:0,_RNCNvMNtCs7k7ABQ2BjtQ_11minifly_api6dockerNtB4_12DockerClient10pull_image0B6_
FNDA:0,_RNCNvMNtCs7k7ABQ2BjtQ_11minifly_api6dockerNtB4_12DockerClient11stream_logs0B6_
FNDA:0,_RNCNvMNtCs7k7ABQ2BjtQ_11minifly_api6dockerNtB4_12DockerClient14stop_container0B6_
FNDA:0,_RNCNvMNtCs7k7ABQ2BjtQ_11minifly_api6dockerNtB4_12DockerClient15list_containers0B6_
FNDA:0,_RNCNvMNtCs7k7ABQ2BjtQ_11minifly_api6dockerNtB4_12DockerClient15start_container0B6_
FNDA:0,_RNCNvMNtCs7k7ABQ2BjtQ_11minifly_api6dockerNtB4_12DockerClient16create_container0B6_
FNDA:0,_RNCNvMNtCs7k7ABQ2BjtQ_11minifly_api6dockerNtB4_12DockerClient16remove_container0B6_
FNDA:0,_RNCNvMNtCs7k7ABQ2BjtQ_11minifly_api6dockerNtB4_12DockerClient17inspect_container0B6_
FNDA:0,_RNCNvMNtCs7k7ABQ2BjtQ_11minifly_api6dockerNtB4_12DockerClient22build_container_config0B6_
FNDA:0,_RNCNvMNtCs7k7ABQ2BjtQ_11minifly_api6dockerNtB4_12DockerClient22build_container_configs_0B6_
FNDA:0,_RNCNvMNtCs7k7ABQ2BjtQ_11minifly_api6dockerNtB4_12DockerClient27get_container_id_by_machine0B6_
FNDA:0,_RNCNvMNtCs7k7ABQ2BjtQ_11minifly_api6dockerNtB4_12DockerClient7version0B6_
FNDA:0,_RNvMNtCs7k7ABQ2BjtQ_11minifly_api6dockerNtB2_12DockerClient10pull_image
FNDA:0,_RNvMNtCs7k7ABQ2BjtQ_11minifly_api6dockerNtB2_12DockerClient11stream_logs
FNDA:0,_RNvMNtCs7k7ABQ2BjtQ_11minifly_api6dockerNtB2_12DockerClient14stop_container
FNDA:0,_RNvMNtCs7k7ABQ2BjtQ_11minifly_api6dockerNtB2_12DockerClient15list_containers
FNDA:0,_RNvMNtCs7k7ABQ2BjtQ_11minifly_api6dockerNtB2_12DockerClient15start_container
FNDA:0,_RNvMNtCs7k7ABQ2BjtQ_11minifly_api6dockerNtB2_12DockerClient16create_container
FNDA:0,_RNvMNtCs7k7ABQ2BjtQ_11minifly_api6dockerNtB2_12DockerClient16remove_container
FNDA:0,_RNvMNtCs7k7ABQ2BjtQ_11minifly_api6dockerNtB2_12DockerClient17inspect_container
FNDA:0,_RNvMNtCs7k7ABQ2BjtQ_11minifly_api6dockerNtB2_12DockerClient19set_resource_limits
FNDA:0,_RNvMNtCs7k7ABQ2BjtQ_11minifly_api6dockerNtB2_12DockerClient22build_container_config
FNDA:0,_RNvMNtCs7k7ABQ2BjtQ_11minifly_api6dockerNtB2_12DockerClient27get_container_id_by_machine
FNDA:0,_RNvMNtCs7k7ABQ2BjtQ_11minifly_api6dockerNtB2_12DockerClient3new
FNDA:0,_RNvMNtCs7k7ABQ2BjtQ_11minifly_api6dockerNtB2_12DockerClient7version
FNF:26
FNH:0
DA:19,0
DA:20,0
DA:21,0
DA:23,0
DA:26,0
DA:27,0
DA:29,0
DA:30,0
DA:31,0
DA:32,0
DA:33,0
DA:34,0
DA:35,0
DA:38,0
DA:41,0
DA:44,0
DA:45,0
DA:46,0
DA:47,0
DA:49,0
DA:50,0
DA:51,0
DA:52,0
DA:54,0
DA:55,0
DA:57,0
DA:58,0
DA:60,0
DA:61,0
DA:62,0
DA:63,0
DA:65,0
DA:66,0
DA:68,0
DA:69,0
DA:71,0
DA:72,0
DA:73,0
DA:74,0
DA:75,0
DA:76,0
DA:77,0
DA:78,0
DA:80,0
DA:81,0
DA:83,0
DA:84,0
DA:86,0
DA:87,0
DA:88,0
DA:89,0
DA:90,0
DA:91,0
DA:92,0
DA:93,0
DA:94,0
DA:96,0
DA:97,0
DA:99,0
DA:100,0
DA:101,0
DA:102,0
DA:103,0
DA:104,0
DA:107,0
DA:108,0
DA:109,0
DA:110,0
DA:111,0
DA:112,0
DA:115,0
DA:116,0
DA:117,0
DA:118,0
DA:119,0
DA:120,0
DA:121,0
DA:122,0
DA:123,0
DA:124,0
DA:125,0
DA:126,0
DA:129,0
DA:130,0
DA:131,0
DA:132,0
DA:133,0
DA:134,0
DA:135,0
DA:138,0
DA:139,0
DA:140,0
DA:141,0
DA:142,0
DA:143,0
DA:144,0
DA:145,0
DA:146,0
DA:147,0
DA:148,0
DA:151,0
DA:152,0
DA:153,0
DA:155,0
DA:157,0
DA:158,0
DA:159,0
DA:160,0
DA:162,0
DA:163,0
DA:164,0
DA:165,0
DA:166,0
DA:167,0
DA:168,0
DA:169,0
DA:171,0
DA:172,0
DA:173,0
DA:174,0
DA:175,0
DA:176,0
DA:178,0
DA:179,0
DA:180,0
DA:181,0
DA:182,0
DA:183,0
DA:188,0
DA:189,0
DA:191,0
DA:192,0
DA:193,0
DA:194,0
DA:195,0
DA:196,0
DA:197,0
DA:198,0
DA:199,0
DA:200,0
DA:201,0
DA:202,0
DA:203,0
DA:204,0
DA:205,0
DA:206,0
DA:207,0
DA:208,0
DA:211,0
DA:212,0
DA:213,0
DA:214,0
DA:215,0
DA:216,0
DA:219,0
DA:220,0
DA:221,0
DA:222,0
DA:223,0
DA:224,0
DA:225,0
DA:226,0
DA:227,0
DA:228,0
DA:231,0
DA:232,0
DA:233,0
DA:234,0
DA:237,0
DA:239,0
DA:240,0
DA:241,0
DA:242,0
DA:243,0
DA:245,0
DA:246,0
DA:247,0
DA:250,0
DA:251,0
DA:253,0
DA:254,0
DA:255,0
DA:257,0
DA:258,0
DA:259,0
DA:260,0
DA:261,0
DA:262,0
DA:264,0
DA:267,0
DA:268,0
DA:270,0
DA:271,0
DA:272,0
DA:273,0
DA:275,0
DA:276,0
DA:277,0
DA:278,0
DA:279,0
DA:280,0
DA:281,0
DA:282,0
DA:283,0
DA:284,0
DA:285,0
DA:286,0
DA:287,0
DA:291,0
DA:292,0
BRF:0
BRH:0
LF:223
LH:0
end_of_record
SF:/Users/jaredreyes/Developer/minifly/minifly-api/src/error.rs
FN:12,_RNvXNtCscDZMq9zvJMc_11minifly_api5errorNtB2_8ApiErrorINtNtCs9toYwWYUYfn_4core7convert4FromNtNtCsibCdHCRrPJc_12minifly_core5error5ErrorE4from
FN:24,_RNvXs0_NtCscDZMq9zvJMc_11minifly_api5errorNtB5_8ApiErrorNtNtNtCs2IZHdgtdcTq_9axum_core8response13into_response12IntoResponse13into_response
FN:18,_RNvXs_NtCscDZMq9zvJMc_11minifly_api5errorNtB4_8ApiErrorINtNtCs9toYwWYUYfn_4core7convert4FromNtCsbYOXjywhp7h_6anyhow5ErrorE4from
FN:18,_RNvXs_NtCslqHMLkZRd4y_11minifly_api5errorNtB4_8ApiErrorINtNtCs9toYwWYUYfn_4core7convert4FromNtCsbYOXjywhp7h_6anyhow5ErrorE4from
FN:12,_RNvXNtCslqHMLkZRd4y_11minifly_api5errorNtB2_8ApiErrorINtNtCs9toYwWYUYfn_4core7convert4FromNtNtCsibCdHCRrPJc_12minifly_core5error5ErrorE4from
FN:24,_RNvXs0_NtCslqHMLkZRd4y_11minifly_api5errorNtB5_8ApiErrorNtNtNtCs2IZHdgtdcTq_9axum_core8response13into_response12IntoResponse13into_response
FN:12,_RNvXNtCs7k7ABQ2BjtQ_11minifly_api5errorNtB2_8ApiErrorINtNtCs9toYwWYUYfn_4core7convert4FromNtNtCsibCdHCRrPJc_12minifly_core5error5ErrorE4from
FN:24,_RNvXs0_NtCs7k7ABQ2BjtQ_11minifly_api5errorNtB5_8ApiErrorNtNtNtCs2IZHdgtdcTq_9axum_core8response13into_response12IntoResponse13into_response
FN:18,_RNvXs_NtCs7k7ABQ2BjtQ_11minifly_api5errorNtB4_8ApiErrorINtNtCs9toYwWYUYfn_4core7convert4FromNtCsbYOXjywhp7h_6anyhow5ErrorE4from
FNDA:0,_RNvXNtCscDZMq9zvJMc_11minifly_api5errorNtB2_8ApiErrorINtNtCs9toYwWYUYfn_4core7convert4FromNtNtCsibCdHCRrPJc_12minifly_core5error5ErrorE4from
FNDA:0,_RNvXs0_NtCscDZMq9zvJMc_11minifly_api5errorNtB5_8ApiErrorNtNtNtCs2IZHdgtdcTq_9axum_core8response13into_response12IntoResponse13into_response
FNDA:0,_RNvXs_NtCscDZMq9zvJMc_11minifly_api5errorNtB4_8ApiErrorINtNtCs9toYwWYUYfn_4core7convert4FromNtCsbYOXjywhp7h_6anyhow5ErrorE4from
FNDA:0,_RNvXs_NtCslqHMLkZRd4y_11minifly_api5errorNtB4_8ApiErrorINtNtCs9toYwWYUYfn_4core7convert4FromNtCsbYOXjywhp7h_6anyhow5ErrorE4from
FNDA:0,_RNvXNtCslqHMLkZRd4y_11minifly_api5errorNtB2_8ApiErrorINtNtCs9toYwWYUYfn_4core7convert4FromNtNtCsibCdHCRrPJc_12minifly_core5error5ErrorE4from
FNDA:0,_RNvXs0_NtCslqHMLkZRd4y_11minifly_api5errorNtB5_8ApiErrorNtNtNtCs2IZHdgtdcTq_9axum_core8response13into_response12IntoResponse13into_response
FNDA:0,_RNvXNtCs7k7ABQ2BjtQ_11minifly_api5errorNtB2_8ApiErrorINtNtCs9toYwWYUYfn_4core7convert4FromNtNtCsibCdHCRrPJc_12minifly_core5error5ErrorE4from
FNDA:0,_RNvXs0_NtCs7k7ABQ2BjtQ_11minifly_api5errorNtB5_8ApiErrorNtNtNtCs2IZHdgtdcTq_9axum_core8response13into_response12IntoResponse13into_response
FNDA:0,_RNvXs_NtCs7k7ABQ2BjtQ_11minifly_api5errorNtB4_8ApiErrorINtNtCs9toYwWYUYfn_4core7convert4FromNtCsbYOXjywhp7h_6anyhow5ErrorE4from
FNF:3
FNH:0
DA:12,0
DA:13,0
DA:14,0
DA:18,0
DA:19,0
DA:20,0
DA:24,0
DA:25,0
DA:26,0
DA:27,0
DA:28,0
DA:29,0
DA:30,0
DA:31,0
DA:32,0
DA:33,0
DA:34,0
DA:35,0
DA:36,0
DA:37,0
DA:38,0
DA:39,0
DA:42,0
DA:43,0
DA:44,0
DA:45,0
DA:46,0
DA:47,0
BRF:0
BRH:0
LF:28
LH:0
end_of_record
SF:/Users/jaredreyes/Developer/minifly/minifly-api/src/handlers/admin.rs
FN:52,_RNCNCNvNtNtCscDZMq9zvJMc_11minifly_api8handlers5admin8shutdown00B9_
FN:82,_RNCNvNtNtCscDZMq9zvJMc_11minifly_api8handlers5admin13system_status0B7_
FN:38,_RNCNvNtNtCscDZMq9zvJMc_11minifly_api8handlers5admin8shutdown0B7_
FN:80,_RNvNtNtCscDZMq9zvJMc_11minifly_api8handlers5admin13system_status
FN:108,_RNvNtNtCscDZMq9zvJMc_11minifly_api8handlers5admin21is_shutdown_requested
FN:36,_RNvNtNtCscDZMq9zvJMc_11minifly_api8handlers5admin8shutdown
FN:119,_RNvNtNtCscDZMq9zvJMc_11minifly_api8handlers5admin15format_duration
FN:138,_RNvNtNtNtCscDZMq9zvJMc_11minifly_api8handlers5admin5testss_20test_format_duration
FN:108,_RNvNtNtCslqHMLkZRd4y_11minifly_api8handlers5admin21is_shutdown_requested
FN:52,_RNCNCNvNtNtCslqHMLkZRd4y_11minifly_api8handlers5admin8shutdown00B9_
FN:82,_RNCNvNtNtCslqHMLkZRd4y_11minifly_api8handlers5admin13system_status0B7_
FN:38,_RNCNvNtNtCslqHMLkZRd4y_11minifly_api8handlers5admin8shutdown0B7_
FN:80,_RNvNtNtCslqHMLkZRd4y_11minifly_api8handlers5admin13system_status
FN:119,_RNvNtNtCslqHMLkZRd4y_11minifly_api8handlers5admin15format_duration
FN:36,_RNvNtNtCslqHMLkZRd4y_11minifly_api8handlers5admin8shutdown
FN:138,_RNvNtNtNtCs7k7ABQ2BjtQ_11minifly_api8handlers5admin5testss_20test_format_duration
FN:119,_RNvNtNtCs7k7ABQ2BjtQ_11minifly_api8handlers5admin15format_duration
FN:52,_RNCNCNvNtNtCs7k7ABQ2BjtQ_11minifly_api8handlers5admin8shutdown00B9_
FN:82,_RNCNvNtNtCs7k7ABQ2BjtQ_11minifly_api8handlers5admin13system_status0B7_
FN:38,_RNCNvNtNtCs7k7ABQ2BjtQ_11minifly_api8handlers5admin8shutdown0B7_
FN:80,_RNvNtNtCs7k7ABQ2BjtQ_11minifly_api8handlers5admin13system_status
FN:108,_RNvNtNtCs7k7ABQ2BjtQ_11minifly_api8handlers5admin21is_shutdown_requested
FN:36,_RNvNtNtCs7k7ABQ2BjtQ_11minifly_api8handlers5admin8shutdown
FNDA:0,_RNCNCNvNtNtCscDZMq9zvJMc_11minifly_api8handlers5admin8shutdown00B9_
FNDA:0,_RNCNvNtNtCscDZMq9zvJMc_11minifly_api8handlers5admin13system_status0B7_
FNDA:0,_RNCNvNtNtCscDZMq9zvJMc_11minifly_api8handlers5admin8shutdown0B7_
FNDA:0,_RNvNtNtCscDZMq9zvJMc_11minifly_api8handlers5admin13system_status
FNDA:0,_RNvNtNtCscDZMq9zvJMc_11minifly_api8handlers5admin21is_shutdown_requested
FNDA:0,_RNvNtNtCscDZMq9zvJMc_11minifly_api8handlers5admin8shutdown
FNDA:0,_RNvNtNtCscDZMq9zvJMc_11minifly_api8handlers5admin15format_duration
FNDA:0,_RNvNtNtNtCscDZMq9zvJMc_11minifly_api8handlers5admin5testss_20test_format_duration
FNDA:0,_RNvNtNtCslqHMLkZRd4y_11minifly_api8handlers5admin21is_shutdown_requested
FNDA:0,_RNCNCNvNtNtCslqHMLkZRd4y_11minifly_api8handlers5admin8shutdown00B9_
FNDA:0,_RNCNvNtNtCslqHMLkZRd4y_11minifly_api8handlers5admin13system_status0B7_
FNDA:0,_RNCNvNtNtCslqHMLkZRd4y_11minifly_api8handlers5admin8shutdown0B7_
FNDA:0,_RNvNtNtCslqHMLkZRd4y_11minifly_api8handlers5admin13system_status
FNDA:0,_RNvNtNtCslqHMLkZRd4y_11minifly_api8handlers5admin15format_duration
FNDA:0,_RNvNtNtCslqHMLkZRd4y_11minifly_api8handlers5admin8shutdown
FNDA:0,_RNvNtNtNtCs7k7ABQ2BjtQ_11minifly_api8handlers5admin5testss_20test_format_duration
FNDA:0,_RNvNtNtCs7k7ABQ2BjtQ_11minifly_api8handlers5admin15format_duration
FNDA:0,_RNCNCNvNtNtCs7k7ABQ2BjtQ_11minifly_api8handlers5admin8shutdown00B9_
FNDA:0,_RNCNvNtNtCs7k7ABQ2BjtQ_11minifly_api8handlers5admin13system_status0B7_
FNDA:0,_RNCNvNtNtCs7k7ABQ2BjtQ_11minifly_api8handlers5admin8shutdown0B7_
FNDA:0,_RNvNtNtCs7k7ABQ2BjtQ_11minifly_api8handlers5admin13system_status
FNDA:0,_RNvNtNtCs7k7ABQ2BjtQ_11minifly_api8handlers5admin21is_shutdown_requested
FNDA:0,_RNvNtNtCs7k7ABQ2BjtQ_11minifly_api8handlers5admin8shutdown
FNF:8
FNH:0
DA:36,0
DA:37,0
DA:38,0
DA:39,0
DA:42,0
DA:43,0
DA:44,0
DA:45,0
DA:46,0
DA:47,0
DA:48,0
DA:49,0
DA:50,0
DA:51,0
DA:52,0
DA:53,0
DA:54,0
DA:56,0
DA:59,0
DA:60,0
DA:61,0
DA:62,0
DA:63,0
DA:64,0
DA:65,0
DA:66,0
DA:67,0
DA:80,0
DA:81,0
DA:82,0
DA:83,0
DA:84,0
DA:85,0
DA:86,0
DA:87,0
DA:88,0
DA:89,0
DA:90,0
DA:91,0
DA:92,0
DA:93,0
DA:94,0
DA:95,0
DA:96,0
DA:97,0
DA:98,0
DA:99,0
DA:100,0
DA:101,0
DA:102,0
DA:108,0
DA:109,0
DA:110,0
DA:119,0
DA:120,0
DA:121,0
DA:122,0
DA:123,0
DA:124,0
DA:125,0
DA:126,0
DA:127,0
DA:129,0
DA:131,0
DA:138,0
DA:139,0
DA:140,0
DA:141,0
DA:142,0
DA:143,0
BRF:0
BRH:0
LF:73
LH:0
end_of_record
SF:/Users/jaredreyes/Developer/minifly/minifly-api/src/handlers/apps.rs
FN:15,_RNCNvNtNtCscDZMq9zvJMc_11minifly_api8handlers4apps10create_app0B7_
FN:76,_RNCNvNtNtCscDZMq9zvJMc_11minifly_api8handlers4apps10delete_app0B7_
FN:46,_RNCNvNtNtCscDZMq9zvJMc_11minifly_api8handlers4apps7get_app0B7_
FN:12,_RNvNtNtCscDZMq9zvJMc_11minifly_api8handlers4apps10create_app
FN:73,_RNvNtNtCscDZMq9zvJMc_11minifly_api8handlers4apps10delete_app
FN:43,_RNvNtNtCscDZMq9zvJMc_11minifly_api8handlers4apps7get_app
FN:12,_RNvNtNtCslqHMLkZRd4y_11minifly_api8handlers4apps10create_app
FN:73,_RNvNtNtCslqHMLkZRd4y_11minifly_api8handlers4apps10delete_app
FN:43,_RNvNtNtCslqHMLkZRd4y_11minifly_api8handlers4apps7get_app
FN:15,_RNCNvNtNtCslqHMLkZRd4y_11minifly_api8handlers4apps10create_app0B7_
FN:76,_RNCNvNtNtCslqHMLkZRd4y_11minifly_api8handlers4apps10delete_app0B7_
FN:46,_RNCNvNtNtCslqHMLkZRd4y_11minifly_api8handlers4apps7get_app0B7_
FN:15,_RNCNvNtNtCs7k7ABQ2BjtQ_11minifly_api8handlers4apps10create_app0B7_
FN:76,_RNCNvNtNtCs7k7ABQ2BjtQ_11minifly_api8handlers4apps10delete_app0B7_
FN:46,_RNCNvNtNtCs7k7ABQ2BjtQ_11minifly_api8handlers4apps7get_app0B7_
FN:12,_RNvNtNtCs7k7ABQ2BjtQ_11minifly_api8handlers4apps10create_app
FN:73,_RNvNtNtCs7k7ABQ2BjtQ_11minifly_api8handlers4apps10delete_app
FN:43,_RNvNtNtCs7k7ABQ2BjtQ_11minifly_api8handlers4apps7get_app
FNDA:0,_RNCNvNtNtCscDZMq9zvJMc_11minifly_api8handlers4apps10create_app0B7_
FNDA:0,_RNCNvNtNtCscDZMq9zvJMc_11minifly_api8handlers4apps10delete_app0B7_
FNDA:0,_RNCNvNtNtCscDZMq9zvJMc_11minifly_api8handlers4apps7get_app0B7_
FNDA:0,_RNvNtNtCscDZMq9zvJMc_11minifly_api8handlers4apps10create_app
FNDA:0,_RNvNtNtCscDZMq9zvJMc_11minifly_api8handlers4apps10delete_app
FNDA:0,_RNvNtNtCscDZMq9zvJMc_11minifly_api8handlers4apps7get_app
FNDA:0,_RNvNtNtCslqHMLkZRd4y_11minifly_api8handlers4apps10create_app
FNDA:0,_RNvNtNtCslqHMLkZRd4y_11minifly_api8handlers4apps10delete_app
FNDA:0,_RNvNtNtCslqHMLkZRd4y_11minifly_api8handlers4apps7get_app
FNDA:0,_RNCNvNtNtCslqHMLkZRd4y_11minifly_api8handlers4apps10create_app0B7_
FNDA:0,_RNCNvNtNtCslqHMLkZRd4y_11minifly_api8handlers4apps10delete_app0B7_
FNDA:0,_RNCNvNtNtCslqHMLkZRd4y_11minifly_api8handlers4apps7get_app0B7_
FNDA:0,_RNCNvNtNtCs7k7ABQ2BjtQ_11minifly_api8handlers4apps10create_app0B7_
FNDA:0,_RNCNvNtNtCs7k7ABQ2BjtQ_11minifly_api8handlers4apps10delete_app0B7_
FNDA:0,_RNCNvNtNtCs7k7ABQ2BjtQ_11minifly_api8handlers4apps7get_app0B7_
FNDA:0,_RNvNtNtCs7k7ABQ2BjtQ_11minifly_api8handlers4apps10create_app
FNDA:0,_RNvNtNtCs7k7ABQ2BjtQ_11minifly_api8handlers4apps10delete_app
FNDA:0,_RNvNtNtCs7k7ABQ2BjtQ_11minifly_api8handlers4apps7get_app
FNF:6
FNH:0
DA:12,0
DA:13,0
DA:14,0
DA:15,0
DA:16,0
DA:17,0
DA:18,0
DA:19,0
DA:20,0
DA:21,0
DA:22,0
DA:23,0
DA:24,0
DA:25,0
DA:26,0
DA:27,0
DA:28,0
DA:29,0
DA:30,0
DA:31,0
DA:32,0
DA:33,0
DA:34,0
DA:35,0
DA:36,0
DA:37,0
DA:38,0
DA:39,0
DA:40,0
DA:41,0
DA:43,0
DA:44,0
DA:45,0
DA:46,0
DA:47,0
DA:48,0
DA:49,0
DA:50,0
DA:51,0
DA:52,0
DA:53,0
DA:54,0
DA:55,0
DA:56,0
DA:57,0
DA:58,0
DA:59,0
DA:60,0
DA:61,0
DA:62,0
DA:63,0
DA:64,0
DA:65,0
DA:66,0
DA:67,0
DA:69,0
DA:71,0
DA:73,0
DA:74,0
DA:75,0
DA:76,0
DA:77,0
DA:78,0
DA:79,0
DA:80,0
DA:81,0
DA:83,0
BRF:0
BRH:0
LF:70
LH:0
end_of_record
SF:/Users/jaredreyes/Developer/minifly/minifly-api/src/handlers/health.rs
FN:8,_RNCNvNtNtCscDZMq9zvJMc_11minifly_api8handlers6health12health_check0B7_
FN:18,_RNCNvNtNtCscDZMq9zvJMc_11minifly_api8handlers6health20comprehensive_health0B7_
FN:23,_RNCNvNtNtCscDZMq9zvJMc_11minifly_api8handlers6health8liveness0B7_
FN:28,_RNCNvNtNtCscDZMq9zvJMc_11minifly_api8handlers6health9readiness0B7_
FN:8,_RNvNtNtCscDZMq9zvJMc_11minifly_api8handlers6health12health_check
FN:18,_RNvNtNtCscDZMq9zvJMc_11minifly_api8handlers6health20comprehensive_health
FN:23,_RNvNtNtCscDZMq9zvJMc_11minifly_api8handlers6health8liveness
FN:28,_RNvNtNtCscDZMq9zvJMc_11minifly_api8handlers6health9readiness
FN:8,_RNvNtNtCslqHMLkZRd4y_11minifly_api8handlers6health12health_check
FN:18,_RNvNtNtCslqHMLkZRd4y_11minifly_api8handlers6health20comprehensive_health
FN:23,_RNvNtNtCslqHMLkZRd4y_11minifly_api8handlers6health8liveness
FN:28,_RNvNtNtCslqHMLkZRd4y_11minifly_api8handlers6health9readiness
FN:8,_RNCNvNtNtCslqHMLkZRd4y_11minifly_api8handlers6health12health_check0B7_
FN:18,_RNCNvNtNtCslqHMLkZRd4y_11minifly_api8handlers6health20comprehensive_health0B7_
FN:23,_RNCNvNtNtCslqHMLkZRd4y_11minifly_api8handlers6health8liveness0B7_
FN:28,_RNCNvNtNtCslqHMLkZRd4y_11minifly_api8handlers6health9readiness0B7_
FN:8,_RNCNvNtNtCs7k7ABQ2BjtQ_11minifly_api8handlers6health12health_check0B7_
FN:18,_RNCNvNtNtCs7k7ABQ2BjtQ_11minifly_api8handlers6health20comprehensive_health0B7_
FN:23,_RNCNvNtNtCs7k7ABQ2BjtQ_11minifly_api8handlers6health8liveness0B7_
FN:28,_RNCNvNtNtCs7k7ABQ2BjtQ_11minifly_api8handlers6health9readiness0B7_
FN:8,_RNvNtNtCs7k7ABQ2BjtQ_11minifly_api8handlers6health12health_check
FN:18,_RNvNtNtCs7k7ABQ2BjtQ_11minifly_api8handlers6health20comprehensive_health
FN:23,_RNvNtNtCs7k7ABQ2BjtQ_11minifly_api8handlers6health8liveness
FN:28,_RNvNtNtCs7k7ABQ2BjtQ_11minifly_api8handlers6health9readiness
FNDA:0,_RNCNvNtNtCscDZMq9zvJMc_11minifly_api8handlers6health12health_check0B7_
FNDA:0,_RNCNvNtNtCscDZMq9zvJMc_11minifly_api8handlers6health20comprehensive_health0B7_
FNDA:0,_RNCNvNtNtCscDZMq9zvJMc_11minifly_api8handlers6health8liveness0B7_
FNDA:0,_RNCNvNtNtCscDZMq9zvJMc_11minifly_api8handlers6health9readiness0B7_
FNDA:0,_RNvNtNtCscDZMq9zvJMc_11minifly_api8handlers6health12health_check
FNDA:0,_RNvNtNtCscDZMq9zvJMc_11minifly_api8handlers6health20comprehensive_health
FNDA:0,_RNvNtNtCscDZMq9zvJMc_11minifly_api8handlers6health8liveness
FNDA:0,_RNvNtNtCscDZMq9zvJMc_11minifly_api8handlers6health9readiness
FNDA:0,_RNvNtNtCslqHMLkZRd4y_11minifly_api8handlers6health12health_check
FNDA:0,_RNvNtNtCslqHMLkZRd4y_11minifly_api8handlers6health20comprehensive_health
FNDA:0,_RNvNtNtCslqHMLkZRd4y_11minifly_api8handlers6health8liveness
FNDA:0,_RNvNtNtCslqHMLkZRd4y_11minifly_api8handlers6health9readiness
FNDA:0,_RNCNvNtNtCslqHMLkZRd4y_11minifly_api8handlers6health12health_check0B7_
FNDA:0,_RNCNvNtNtCslqHMLkZRd4y_11minifly_api8handlers6health20comprehensive_health0B7_
FNDA:0,_RNCNvNtNtCslqHMLkZRd4y_11minifly_api8handlers6health8liveness0B7_
FNDA:0,_RNCNvNtNtCslqHMLkZRd4y_11minifly_api8handlers6health9readiness0B7_
FNDA:0,_RNCNvNtNtCs7k7ABQ2BjtQ_11minifly_api8handlers6health12health_check0B7_
FNDA:0,_RNCNvNtNtCs7k7ABQ2BjtQ_11minifly_api8handlers6health20comprehensive_health0B7_
FNDA:0,_RNCNvNtNtCs7k7ABQ2BjtQ_11minifly_api8handlers6health8liveness0B7_
FNDA:0,_RNCNvNtNtCs7k7ABQ2BjtQ_11minifly_api8handlers6health9readiness0B7_
FNDA:0,_RNvNtNtCs7k7ABQ2BjtQ_11minifly_api8handlers6health12health_check
FNDA:0,_RNvNtNtCs7k7ABQ2BjtQ_11minifly_api8handlers6health20comprehensive_health
FNDA:0,_RNvNtNtCs7k7ABQ2BjtQ_11minifly_api8handlers6health8liveness
FNDA:0,_RNvNtNtCs7k7ABQ2BjtQ_11minifly_api8handlers6health9readiness
FNF:8
FNH:0
DA:8,0
DA:9,0
DA:10,0
DA:11,0
DA:12,0
DA:13,0
DA:14,0
DA:15,0
DA:18,0
DA:19,0
DA:20,0
DA:23,0
DA:24,0
DA:25,0
DA:28,0
DA:29,0
DA:30,0
BRF:0
BRH:0
LF:21
LH:0
end_of_record
SF:/Users/jaredreyes/Developer/minifly/minifly-api/src/handlers/logs.rs
FN:281,_RNCNCNvNtNtCscDZMq9zvJMc_11minifly_api8handlers4logs16get_logs_summary00B9_
FN:140,_RNCNCNvNtNtCscDZMq9zvJMc_11minifly_api8handlers4logs19stream_machine_logs00B9_
FN:251,_RNCNvNtNtCscDZMq9zvJMc_11minifly_api8handlers4logs16get_logs_summary0B7_
FN:85,_RNCNvNtNtCscDZMq9zvJMc_11minifly_api8handlers4logs19stream_machine_logs0B7_
FN:248,_RNvNtNtCscDZMq9zvJMc_11minifly_api8handlers4logs16get_logs_summary
FN:174,_RNvNtNtCscDZMq9zvJMc_11minifly_api8handlers4logs18process_log_output
FN:81,_RNvNtNtCscDZMq9zvJMc_11minifly_api8handlers4logs19stream_machine_logs
FN:314,_RNvNtNtNtCscDZMq9zvJMc_11minifly_api8handlers4logs5testss_22test_extract_log_level
FN:323,_RNvNtNtNtCscDZMq9zvJMc_11minifly_api8handlers4logs5testss_28test_log_entry_serialization
FN:224,_RNvNtNtCscDZMq9zvJMc_11minifly_api8handlers4logs17extract_log_level
FN:281,_RNCNCNvNtNtCslqHMLkZRd4y_11minifly_api8handlers4logs16get_logs_summary00B9_
FN:140,_RNCNCNvNtNtCslqHMLkZRd4y_11minifly_api8handlers4logs19stream_machine_logs00B9_
FN:251,_RNCNvNtNtCslqHMLkZRd4y_11minifly_api8handlers4logs16get_logs_summary0B7_
FN:85,_RNCNvNtNtCslqHMLkZRd4y_11minifly_api8handlers4logs19stream_machine_logs0B7_
FN:248,_RNvNtNtCslqHMLkZRd4y_11minifly_api8handlers4logs16get_logs_summary
FN:224,_RNvNtNtCslqHMLkZRd4y_11minifly_api8handlers4logs17extract_log_level
FN:174,_RNvNtNtCslqHMLkZRd4y_11minifly_api8handlers4logs18process_log_output
FN:81,_RNvNtNtCslqHMLkZRd4y_11minifly_api8handlers4logs19stream_machine_logs
FN:314,_RNvNtNtNtCs7k7ABQ2BjtQ_11minifly_api8handlers4logs5testss_22test_extract_log_level
FN:323,_RNvNtNtNtCs7k7ABQ2BjtQ_11minifly_api8handlers4logs5testss_28test_log_entry_serialization
FN:224,_RNvNtNtCs7k7ABQ2BjtQ_11minifly_api8handlers4logs17extract_log_level
FN:281,_RNCNCNvNtNtCs7k7ABQ2BjtQ_11minifly_api8handlers4logs16get_logs_summary00B9_
FN:140,_RNCNCNvNtNtCs7k7ABQ2BjtQ_11minifly_api8handlers4logs19stream_machine_logs00B9_
FN:251,_RNCNvNtNtCs7k7ABQ2BjtQ_11minifly_api8handlers4logs16get_logs_summary0B7_
FN:85,_RNCNvNtNtCs7k7ABQ2BjtQ_11minifly_api8handlers4logs19stream_machine_logs0B7_
FN:248,_RNvNtNtCs7k7ABQ2BjtQ_11minifly_api8handlers4logs16get_logs_summary
FN:174,_RNvNtNtCs7k7ABQ2BjtQ_11minifly_api8handlers4logs18process_log_output
FN:81,_RNvNtNtCs7k7ABQ2BjtQ_11minifly_api8handlers4logs19stream_machine_logs
FNDA:0,_RNCNCNvNtNtCscDZMq9zvJMc_11minifly_api8handlers4logs16get_logs_summary00B9_
FNDA:0,_RNCNCNvNtNtCscDZMq9zvJMc_11minifly_api8handlers4logs19stream_machine_logs00B9_
FNDA:0,_RNCNvNtNtCscDZMq9zvJMc_11minifly_api8handlers4logs16get_logs_summary0B7_
FNDA:0,_RNCNvNtNtCscDZMq9zvJMc_11minifly_api8handlers4logs19stream_machine_logs0B7_
FNDA:0,_RNvNtNtCscDZMq9zvJMc_11minifly_api8handlers4logs16get_logs_summary
FNDA:0,_RNvNtNtCscDZMq9zvJMc_11minifly_api8handlers4logs18process_log_output
FNDA:0,_RNvNtNtCscDZMq9zvJMc_11minifly_api8handlers4logs19stream_machine_logs
FNDA:0,_RNvNtNtNtCscDZMq9zvJMc_11minifly_api8handlers4logs5testss_22test_extract_log_level
FNDA:0,_RNvNtNtNtCscDZMq9zvJMc_11minifly_api8handlers4logs5testss_28test_log_entry_serialization
FNDA:0,_RNvNtNtCscDZMq9zvJMc_11minifly_api8handlers4logs17extract_log_level
FNDA:0,_RNCNCNvNtNtCslqHMLkZRd4y_11minifly_api8handlers4logs16get_logs_summary00B9_
FNDA:0,_RNCNCNvNtNtCslqHMLkZRd4y_11minifly_api8handlers4logs19stream_machine_logs00B9_
FNDA:0,_RNCNvNtNtCslqHMLkZRd4y_11minifly_api8handlers4logs16get_logs_summary0B7_
FNDA:0,_RNCNvNtNtCslqHMLkZRd4y_11minifly_api8handlers4logs19stream_machine_logs0B7_
FNDA:0,_RNvNtNtCslqHMLkZRd4y_11minifly_api8handlers4logs16get_logs_summary
FNDA:0,_RNvNtNtCslqHMLkZRd4y_11minifly_api8handlers4logs17extract_log_level
FNDA:0,_RNvNtNtCslqHMLkZRd4y_11minifly_api8handlers4logs18process_log_output
FNDA:0,_RNvNtNtCslqHMLkZRd4y_11minifly_api8handlers4logs19stream_machine_logs
FNDA:0,_RNvNtNtNtCs7k7ABQ2BjtQ_11minifly_api8handlers4logs5testss_22test_extract_log_level
FNDA:0,_RNvNtNtNtCs7k7ABQ2BjtQ_11minifly_api8handlers4logs5testss_28test_log_entry_serialization
FNDA:0,_RNvNtNtCs7k7ABQ2BjtQ_11minifly_api8handlers4logs17extract_log_level
FNDA:0,_RNCNCNvNtNtCs7k7ABQ2BjtQ_11minifly_api8handlers4logs16get_logs_summary00B9_
FNDA:0,_RNCNCNvNtNtCs7k7ABQ2BjtQ_11minifly_api8handlers4logs19stream_machine_logs00B9_
FNDA:0,_RNCNvNtNtCs7k7ABQ2BjtQ_11minifly_api8handlers4logs16get_logs_summary0B7_
FNDA:0,_RNCNvNtNtCs7k7ABQ2BjtQ_11minifly_api8handlers4logs19stream_machine_logs0B7_
FNDA:0,_RNvNtNtCs7k7ABQ2BjtQ_11minifly_api8handlers4logs16get_logs_summary
FNDA:0,_RNvNtNtCs7k7ABQ2BjtQ_11minifly_api8handlers4logs18process_log_output
FNDA:0,_RNvNtNtCs7k7ABQ2BjtQ_11minifly_api8handlers4logs19stream_machine_logs
FNF:10
FNH:0
DA:81,0
DA:82,0
DA:83,0
DA:84,0
DA:85,0
DA:86,0
DA:92,0
DA:96,0
DA:97,0
DA:99,0
DA:101,0
DA:103,0
DA:105,0
DA:106,0
DA:109,0
DA:111,0
DA:116,0
DA:117,0
DA:118,0
DA:119,0
DA:120,0
DA:121,0
DA:122,0
DA:123,0
DA:124,0
DA:128,0
DA:130,0
DA:134,0
DA:135,0
DA:136,0
DA:137,0
DA:138,0
DA:139,0
DA:140,0
DA:141,0
DA:142,0
DA:143,0
DA:144,0
DA:145,0
DA:146,0
DA:147,0
DA:148,0
DA:149,0
DA:150,0
DA:151,0
DA:152,0
DA:153,0
DA:154,0
DA:155,0
DA:159,0
DA:160,0
DA:161,0
DA:164,0
DA:165,0
DA:166,0
DA:167,0
DA:168,0
DA:169,0
DA:170,0
DA:171,0
DA:174,0
DA:175,0
DA:176,0
DA:177,0
DA:178,0
DA:179,0
DA:180,0
DA:183,0
DA:184,0
DA:185,0
DA:186,0
DA:187,0
DA:190,0
DA:191,0
DA:194,0
DA:195,0
DA:196,0
DA:198,0
DA:202,0
DA:203,0
DA:205,0
DA:209,0
DA:210,0
DA:211,0
DA:212,0
DA:213,0
DA:214,0
DA:215,0
DA:216,0
DA:217,0
DA:218,0
DA:219,0
DA:220,0
DA:221,0
DA:224,0
DA:225,0
DA:226,0
DA:227,0
DA:228,0
DA:229,0
DA:230,0
DA:231,0
DA:232,0
DA:233,0
DA:234,0
DA:235,0
DA:237,0
DA:239,0
DA:248,0
DA:249,0
DA:250,0
DA:251,0
DA:252,0
DA:255,0
DA:259,0
DA:260,0
DA:261,0
DA:262,0
DA:266,0
DA:267,0
DA:268,0
DA:269,0
DA:270,0
DA:271,0
DA:272,0
DA:274,0
DA:276,0
DA:277,0
DA:278,0
DA:279,0
DA:280,0
DA:281,0
DA:282,0
DA:283,0
DA:284,0
DA:285,0
DA:287,0
DA:289,0
DA:290,0
DA:291,0
DA:292,0
DA:293,0
DA:294,0
DA:295,0
DA:314,0
DA:315,0
DA:316,0
DA:317,0
DA:318,0
DA:319,0
DA:320,0
DA:323,0
DA:324,0
DA:325,0
DA:326,0
DA:327,0
DA:328,0
DA:329,0
DA:330,0
DA:331,0
DA:332,0
DA:333,0
DA:334,0
DA:335,0
DA:336,0
DA:337,0
DA:338,0
BRF:0
BRH:0
LF:173
LH:0
end_of_record
SF:/Users/jaredreyes/Developer/minifly/minifly-api/src/handlers/machines.rs
FN:88,_RNCNCNCNvNtNtCscDZMq9zvJMc_11minifly_api8handlers8machines14create_machine000Bb_
FN:123,_RNCNCNCNvNtNtCscDZMq9zvJMc_11minifly_api8handlers8machines14create_machine00s0_0Bb_
FN:124,_RNCNCNCNvNtNtCscDZMq9zvJMc_11minifly_api8handlers8machines14create_machine00s1_0Bb_
FN:118,_RNCNCNCNvNtNtCscDZMq9zvJMc_11minifly_api8handlers8machines14create_machine00s_0Bb_
FN:348,_RNCNCNvNtNtCscDZMq9zvJMc_11minifly_api8handlers8machines12stop_machine00B9_
FN:349,_RNCNCNvNtNtCscDZMq9zvJMc_11minifly_api8handlers8machines12stop_machine0s_0B9_
FN:29,_RNCNCNvNtNtCscDZMq9zvJMc_11minifly_api8handlers8machines13list_machines00B9_
FN:40,_RNCNCNvNtNtCscDZMq9zvJMc_11minifly_api8handlers8machines13list_machines0s0_0B9_
FN:35,_RNCNCNvNtNtCscDZMq9zvJMc_11minifly_api8handlers8machines13list_machines0s_0B9_
FN:475,_RNCNCNvNtNtCscDZMq9zvJMc_11minifly_api8handlers8machines13release_lease00B9_
FN:476,_RNCNCNvNtNtCscDZMq9zvJMc_11minifly_api8handlers8machines13release_lease0s_0B9_
FN:222,_RNCNCNvNtNtCscDZMq9zvJMc_11minifly_api8handlers8machines14delete_machine00B9_
FN:179,_RNCNvNtNtCscDZMq9zvJMc_11minifly_api8handlers8machines11get_machine0B7_
FN:431,_RNCNvNtNtCscDZMq9zvJMc_11minifly_api8handlers8machines12create_lease0B7_
FN:496,_RNCNvNtNtCscDZMq9zvJMc_11minifly_api8handlers8machines12get_metadata0B7_
FN:505,_RNCNvNtNtCscDZMq9zvJMc_11minifly_api8handlers8machines12set_metadata0B7_
FN:338,_RNCNvNtNtCscDZMq9zvJMc_11minifly_api8handlers8machines12stop_machine0B7_
FN:410,_RNCNvNtNtCscDZMq9zvJMc_11minifly_api8handlers8machines12wait_machine0B7_
FN:25,_RNCNvNtNtCscDZMq9zvJMc_11minifly_api8handlers8machines13list_machines0B7_
FN:473,_RNCNvNtNtCscDZMq9zvJMc_11minifly_api8handlers8machines13release_lease0B7_
FN:272,_RNCNvNtNtCscDZMq9zvJMc_11minifly_api8handlers8machines13start_machine0B7_
FN:52,_RNCNvNtNtCscDZMq9zvJMc_11minifly_api8handlers8machines14create_machine0B7_
FN:221,_RNCNvNtNtCscDZMq9zvJMc_11minifly_api8handlers8machines14delete_machine0B7_
FN:193,_RNCNvNtNtCscDZMq9zvJMc_11minifly_api8handlers8machines14update_machine0B7_
FN:513,_RNCNvNtNtCscDZMq9zvJMc_11minifly_api8handlers8machines15delete_metadata0B7_
FN:379,_RNCNvNtNtCscDZMq9zvJMc_11minifly_api8handlers8machines15suspend_machine0B7_
FN:523,_RNCNvNtNtCscDZMq9zvJMc_11minifly_api8handlers8machines20create_machine_lease0B7_
FN:457,_RNCNvNtNtCscDZMq9zvJMc_11minifly_api8handlers8machines9get_lease0B7_
FN:176,_RNvNtNtCscDZMq9zvJMc_11minifly_api8handlers8machines11get_machine
FN:427,_RNvNtNtCscDZMq9zvJMc_11minifly_api8handlers8machines12create_lease
FN:493,_RNvNtNtCscDZMq9zvJMc_11minifly_api8handlers8machines12get_metadata
FN:501,_RNvNtNtCscDZMq9zvJMc_11minifly_api8handlers8machines12set_metadata
FN:334,_RNvNtNtCscDZMq9zvJMc_11minifly_api8handlers8machines12stop_machine
FN:406,_RNvNtNtCscDZMq9zvJMc_11minifly_api8handlers8machines12wait_machine
FN:21,_RNvNtNtCscDZMq9zvJMc_11minifly_api8handlers8machines13list_machines
FN:469,_RNvNtNtCscDZMq9zvJMc_11minifly_api8handlers8machines13release_lease
FN:269,_RNvNtNtCscDZMq9zvJMc_11minifly_api8handlers8machines13start_machine
FN:48,_RNvNtNtCscDZMq9zvJMc_11minifly_api8handlers8machines14create_machine
FN:217,_RNvNtNtCscDZMq9zvJMc_11minifly_api8handlers8machines14delete_machine
FN:188,_RNvNtNtCscDZMq9zvJMc_11minifly_api8handlers8machines14update_machine
FN:510,_RNvNtNtCscDZMq9zvJMc_11minifly_api8handlers8machines15delete_metadata
FN:376,_RNvNtNtCscDZMq9zvJMc_11minifly_api8handlers8machines15suspend_machine
FN:518,_RNvNtNtCscDZMq9zvJMc_11minifly_api8handlers8machines20create_machine_lease
FN:454,_RNvNtNtCscDZMq9zvJMc_11minifly_api8handlers8machines9get_lease
FN:88,_RNCNCNCNvNtNtCslqHMLkZRd4y_11minifly_api8handlers8machines14create_machine000Bb_
FN:123,_RNCNCNCNvNtNtCslqHMLkZRd4y_11minifly_api8handlers8machines14create_machine00s0_0Bb_
FN:124,_RNCNCNCNvNtNtCslqHMLkZRd4y_11minifly_api8handlers8machines14create_machine00s1_0Bb_
FN:118,_RNCNCNCNvNtNtCslqHMLkZRd4y_11minifly_api8handlers8machines14create_machine00s_0Bb_
FN:348,_RNCNCNvNtNtCslqHMLkZRd4y_11minifly_api8handlers8machines12stop_machine00B9_
FN:349,_RNCNCNvNtNtCslqHMLkZRd4y_11minifly_api8handlers8machines12stop_machine0s_0B9_
FN:29,_RNCNCNvNtNtCslqHMLkZRd4y_11minifly_api8handlers8machines13list_machines00B9_
FN:40,_RNCNCNvNtNtCslqHMLkZRd4y_11minifly_api8handlers8machines13list_machines0s0_0B9_
FN:35,_RNCNCNvNtNtCslqHMLkZRd4y_11minifly_api8handlers8machines13list_machines0s_0B9_
FN:475,_RNCNCNvNtNtCslqHMLkZRd4y_11minifly_api8handlers8machines13release_lease00B9_
FN:476,_RNCNCNvNtNtCslqHMLkZRd4y_11minifly_api8handlers8machines13release_lease0s_0B9_
FN:222,_RNCNCNvNtNtCslqHMLkZRd4y_11minifly_api8handlers8machines14delete_machine00B9_
FN:179,_RNCNvNtNtCslqHMLkZRd4y_11minifly_api8handlers8machines11get_machine0B7_
FN:431,_RNCNvNtNtCslqHMLkZRd4y_11minifly_api8handlers8machines12create_lease0B7_
FN:496,_RNCNvNtNtCslqHMLkZRd4y_11minifly_api8handlers8machines12get_metadata0B7_
FN:505,_RNCNvNtNtCslqHMLkZRd4y_11minifly_api8handlers8machines12set_metadata0B7_
FN:338,_RNCNvNtNtCslqHMLkZRd4y_11minifly_api8handlers8machines12stop_machine0B7_
FN:410,_RNCNvNtNtCslqHMLkZRd4y_11minifly_api8handlers8machines12wait_machine0B7_
FN:25,_RNCNvNtNtCslqHMLkZRd4y_11minifly_api8handlers8machines13list_machines0B7_
FN:473,_RNCNvNtNtCslqHMLkZRd4y_11minifly_api8handlers8machines13release_lease0B7_
FN:272,_RNCNvNtNtCslqHMLkZRd4y_11minifly_api8handlers8machines13start_machine0B7_
FN:52,_RNCNvNtNtCslqHMLkZRd4y_11minifly_api8handlers8machines14create_machine0B7_
FN:221,_RNCNvNtNtCslqHMLkZRd4y_11minifly_api8handlers8machines14delete_machine0B7_
FN:193,_RNCNvNtNtCslqHMLkZRd4y_11minifly_api8handlers8machines14update_machine0B7_
FN:513,_RNCNvNtNtCslqHMLkZRd4y_11minifly_api8handlers8machines15delete_metadata0B7_
FN:379,_RNCNvNtNtCslqHMLkZRd4y_11minifly_api8handlers8machines15suspend_machine0B7_
FN:523,_RNCNvNtNtCslqHMLkZRd4y_11minifly_api8handlers8machines20create_machine_lease0B7_
FN:457,_RNCNvNtNtCslqHMLkZRd4y_11minifly_api8handlers8machines9get_lease0B7_
FN:176,_RNvNtNtCslqHMLkZRd4y_11minifly_api8handlers8machines11get_machine
FN:427,_RNvNtNtCslqHMLkZRd4y_11minifly_api8handlers8machines12create_lease
FN:493,_RNvNtNtCslqHMLkZRd4y_11minifly_api8handlers8machines12get_metadata
FN:501,_RNvNtNtCslqHMLkZRd4y_11minifly_api8handlers8machines12set_metadata
FN:334,_RNvNtNtCslqHMLkZRd4y_11minifly_api8handlers8machines12stop_machine
FN:406,_RNvNtNtCslqHMLkZRd4y_11minifly_api8handlers8machines12wait_machine
FN:21,_RNvNtNtCslqHMLkZRd4y_11minifly_api8handlers8machines13list_machines
FN:469,_RNvNtNtCslqHMLkZRd4y_11minifly_api8handlers8machines13release_lease
FN:269,_RNvNtNtCslqHMLkZRd4y_11minifly_api8handlers8machines13start_machine
FN:48,_RNvNtNtCslqHMLkZRd4y_11minifly_api8handlers8machines14create_machine
FN:217,_RNvNtNtCslqHMLkZRd4y_11minifly_api8handlers8machines14delete_machine
FN:188,_RNvNtNtCslqHMLkZRd4y_11minifly_api8handlers8machines14update_machine
FN:510,_RNvNtNtCslqHMLkZRd4y_11minifly_api8handlers8machines15delete_metadata
FN:376,_RNvNtNtCslqHMLkZRd4y_11minifly_api8handlers8machines15suspend_machine
FN:518,_RNvNtNtCslqHMLkZRd4y_11minifly_api8handlers8machines20create_machine_lease
FN:454,_RNvNtNtCslqHMLkZRd4y_11minifly_api8handlers8machines9get_lease
FN:88,_RNCNCNCNvNtNtCs7k7ABQ2BjtQ_11minifly_api8handlers8machines14create_machine000Bb_
FN:123,_RNCNCNCNvNtNtCs7k7ABQ2BjtQ_11minifly_api8handlers8machines14create_machine00s0_0Bb_
FN:124,_RNCNCNCNvNtNtCs7k7ABQ2BjtQ_11minifly_api8handlers8machines14create_machine00s1_0Bb_
FN:118,_RNCNCNCNvNtNtCs7k7ABQ2BjtQ_11minifly_api8handlers8machines14create_machine00s_0Bb_
FN:348,_RNCNCNvNtNtCs7k7ABQ2BjtQ_11minifly_api8handlers8machines12stop_machine00B9_
FN:349,_RNCNCNvNtNtCs7k7ABQ2BjtQ_11minifly_api8handlers8machines12stop_machine0s_0B9_
FN:29,_RNCNCNvNtNtCs7k7ABQ2BjtQ_11minifly_api8handlers8machines13list_machines00B9_
FN:40,_RNCNCNvNtNtCs7k7ABQ2BjtQ_11minifly_api8handlers8machines13list_machines0s0_0B9_
FN:35,_RNCNCNvNtNtCs7k7ABQ2BjtQ_11minifly_api8handlers8machines13list_machines0s_0B9_
FN:475,_RNCNCNvNtNtCs7k7ABQ2BjtQ_11minifly_api8handlers8machines13release_lease00B9_
FN:476,_RNCNCNvNtNtCs7k7ABQ2BjtQ_11minifly_api8handlers8machines13release_lease0s_0B9_
FN:222,_RNCNCNvNtNtCs7k7ABQ2BjtQ_11minifly_api8handlers8machines14delete_machine00B9_
FN:179,_RNCNvNtNtCs7k7ABQ2BjtQ_11minifly_api8handlers8machines11get_machine0B7_
FN:431,_RNCNvNtNtCs7k7ABQ2BjtQ_11minifly_api8handlers8machines12create_lease0B7_
FN:496,_RNCNvNtNtCs7k7ABQ2BjtQ_11minifly_api8handlers8machines12get_metadata0B7_
FN:505,_RNCNvNtNtCs7k7ABQ2BjtQ_11minifly_api8handlers8machines12set_metadata0B7_
FN:338,_RNCNvNtNtCs7k7ABQ2BjtQ_11minifly_api8handlers8machines12stop_machine0B7_
FN:410,_RNCNvNtNtCs7k7ABQ2BjtQ_11minifly_api8handlers8machines12wait_machine0B7_
FN:25,_RNCNvNtNtCs7k7ABQ2BjtQ_11minifly_api8handlers8machines13list_machines0B7_
FN:473,_RNCNvNtNtCs7k7ABQ2BjtQ_11minifly_api8handlers8machines13release_lease0B7_
FN:272,_RNCNvNtNtCs7k7ABQ2BjtQ_11minifly_api8handlers8machines13start_machine0B7_
FN:52,_RNCNvNtNtCs7k7ABQ2BjtQ_11minifly_api8handlers8machines14create_machine0B7_
FN:221,_RNCNvNtNtCs7k7ABQ2BjtQ_11minifly_api8handlers8machines14delete_machine0B7_
FN:193,_RNCNvNtNtCs7k7ABQ2BjtQ_11minifly_api8handlers8machines14update_machine0B7_
FN:513,_RNCNvNtNtCs7k7ABQ2BjtQ_11minifly_api8handlers8machines15delete_metadata0B7_
FN:379,_RNCNvNtNtCs7k7ABQ2BjtQ_11minifly_api8handlers8machines15suspend_machine0B7_
FN:523,_RNCNvNtNtCs7k7ABQ2BjtQ_11minifly_api8handlers8machines20create_machine_lease0B7_
FN:457,_RNCNvNtNtCs7k7ABQ2BjtQ_11minifly_api8handlers8machines9get_lease0B7_
FN:176,_RNvNtNtCs7k7ABQ2BjtQ_11minifly_api8handlers8machines11get_machine
FN:427,_RNvNtNtCs7k7ABQ2BjtQ_11minifly_api8handlers8machines12create_lease
FN:493,_RNvNtNtCs7k7ABQ2BjtQ_11minifly_api8handlers8machines12get_metadata
FN:501,_RNvNtNtCs7k7ABQ2BjtQ_11minifly_api8handlers8machines12set_metadata
FN:334,_RNvNtNtCs7k7ABQ2BjtQ_11minifly_api8handlers8machines12stop_machine
FN:406,_RNvNtNtCs7k7ABQ2BjtQ_11minifly_api8handlers8machines12wait_machine
FN:21,_RNvNtNtCs7k7ABQ2BjtQ_11minifly_api8handlers8machines13list_machines
FN:469,_RNvNtNtCs7k7ABQ2BjtQ_11minifly_api8handlers8machines13release_lease
FN:269,_RNvNtNtCs7k7ABQ2BjtQ_11minifly_api8handlers8machines13start_machine
FN:48,_RNvNtNtCs7k7ABQ2BjtQ_11minifly_api8handlers8machines14create_machine
FN:217,_RNvNtNtCs7k7ABQ2BjtQ_11minifly_api8handlers8machines14delete_machine
FN:188,_RNvNtNtCs7k7ABQ2BjtQ_11minifly_api8handlers8machines14update_machine
FN:510,_RNvNtNtCs7k7ABQ2BjtQ_11minifly_api8handlers8machines15delete_metadata
FN:376,_RNvNtNtCs7k7ABQ2BjtQ_11minifly_api8handlers8machines15suspend_machine
FN:518,_RNvNtNtCs7k7ABQ2BjtQ_11minifly_api8handlers8machines20create_machine_lease
FN:454,_RNvNtNtCs7k7ABQ2BjtQ_11minifly_api8handlers8machines9get_lease
FNDA:0,_RNCNCNCNvNtNtCscDZMq9zvJMc_11minifly_api8handlers8machines14create_machine000Bb_
FNDA:0,_RNCNCNCNvNtNtCscDZMq9zvJMc_11minifly_api8handlers8machines14create_machine00s0_0Bb_
FNDA:0,_RNCNCNCNvNtNtCscDZMq9zvJMc_11minifly_api8handlers8machines14create_machine00s1_0Bb_
FNDA:0,_RNCNCNCNvNtNtCscDZMq9zvJMc_11minifly_api8handlers8machines14create_machine00s_0Bb_
FNDA:0,_RNCNCNvNtNtCscDZMq9zvJMc_11minifly_api8handlers8machines12stop_machine00B9_
FNDA:0,_RNCNCNvNtNtCscDZMq9zvJMc_11minifly_api8handlers8machines12stop_machine0s_0B9_
FNDA:0,_RNCNCNvNtNtCscDZMq9zvJMc_11minifly_api8handlers8machines13list_machines00B9_
FNDA:0,_RNCNCNvNtNtCscDZMq9zvJMc_11minifly_api8handlers8machines13list_machines0s0_0B9_
FNDA:0,_RNCNCNvNtNtCscDZMq9zvJMc_11minifly_api8handlers8machines13list_machines0s_0B9_
FNDA:0,_RNCNCNvNtNtCscDZMq9zvJMc_11minifly_api8handlers8machines13release_lease00B9_
FNDA:0,_RNCNCNvNtNtCscDZMq9zvJMc_11minifly_api8handlers8machines13release_lease0s_0B9_
FNDA:0,_RNCNCNvNtNtCscDZMq9zvJMc_11minifly_api8handlers8machines14delete_machine00B9_
FNDA:0,_RNCNvNtNtCscDZMq9zvJMc_11minifly_api8handlers8machines11get_machine0B7_
FNDA:0,_RNCNvNtNtCscDZMq9zvJMc_11minifly_api8handlers8machines12create_lease0B7_
FNDA:0,_RNCNvNtNtCscDZMq9zvJMc_11minifly_api8handlers8machines12get_metadata0B7_
FNDA:0,_RNCNvNtNtCscDZMq9zvJMc_11minifly_api8handlers8machines12set_metadata0B7_
FNDA:0,_RNCNvNtNtCscDZMq9zvJMc_11minifly_api8handlers8machines12stop_machine0B7_
FNDA:0,_RNCNvNtNtCscDZMq9zvJMc_11minifly_api8handlers8machines12wait_machine0B7_
FNDA:0,_RNCNvNtNtCscDZMq9zvJMc_11minifly_api8handlers8machines13list_machines0B7_
FNDA:0,_RNCNvNtNtCscDZMq9zvJMc_11minifly_api8handlers8machines13release_lease0B7_
FNDA:0,_RNCNvNtNtCscDZMq9zvJMc_11minifly_api8handlers8machines13start_machine0B7_
FNDA:0,_RNCNvNtNtCscDZMq9zvJMc_11minifly_api8handlers8machines14create_machine0B7_
FNDA:0,_RNCNvNtNtCscDZMq9zvJMc_11minifly_api8handlers8machines14delete_machine0B7_
FNDA:0,_RNCNvNtNtCscDZMq9zvJMc_11minifly_api8handlers8machines14update_machine0B7_
FNDA:0,_RNCNvNtNtCscDZMq9zvJMc_11minifly_api8handlers8machines15delete_metadata0B7_
FNDA:0,_RNCNvNtNtCscDZMq9zvJMc_11minifly_api8handlers8machines15suspend_machine0B7_
FNDA:0,_RNCNvNtNtCscDZMq9zvJMc_11minifly_api8handlers8machines20create_machine_lease0B7_
FNDA:0,_RNCNvNtNtCscDZMq9zvJMc_11minifly_api8handlers8machines9get_lease0B7_
FNDA:0,_RNvNtNtCscDZMq9zvJMc_11minifly_api8handlers8machines11get_machine
FNDA:0,_RNvNtNtCscDZMq9zvJMc_11minifly_api8handlers8machines12create_lease
FNDA:0,_RNvNtNtCscDZMq9zvJMc_11minifly_api8handlers8machines12get_metadata
FNDA:0,_RNvNtNtCscDZMq9zvJMc_11minifly_api8handlers8machines12set_metadata
FNDA:0,_RNvNtNtCscDZMq9zvJMc_11minifly_api8handlers8machines12stop_machine
FNDA:0,_RNvNtNtCscDZMq9zvJMc_11minifly_api8handlers8machines12wait_machine
FNDA:0,_RNvNtNtCscDZMq9zvJMc_11minifly_api8handlers8machines13list_machines
FNDA:0,_RNvNtNtCscDZMq9zvJMc_11minifly_api8handlers8machines13release_lease
FNDA:0,_RNvNtNtCscDZMq9zvJMc_11minifly_api8handlers8machines13start_machine
FNDA:0,_RNvNtNtCscDZMq9zvJMc_11minifly_api8handlers8machines14create_machine
FNDA:0,_RNvNtNtCscDZMq9zvJMc_11minifly_api8handlers8machines14delete_machine
FNDA:0,_RNvNtNtCscDZMq9zvJMc_11minifly_api8handlers8machines14update_machine
FNDA:0,_RNvNtNtCscDZMq9zvJMc_11minifly_api8handlers8machines15delete_metadata
FNDA:0,_RNvNtNtCscDZMq9zvJMc_11minifly_api8handlers8machines15suspend_machine
FNDA:0,_RNvNtNtCscDZMq9zvJMc_11minifly_api8handlers8machines20create_machine_lease
FNDA:0,_RNvNtNtCscDZMq9zvJMc_11minifly_api8handlers8machines9get_lease
FNDA:0,_RNCNCNCNvNtNtCslqHMLkZRd4y_11minifly_api8handlers8machines14create_machine000Bb_
FNDA:0,_RNCNCNCNvNtNtCslqHMLkZRd4y_11minifly_api8handlers8machines14create_machine00s0_0Bb_
FNDA:0,_RNCNCNCNvNtNtCslqHMLkZRd4y_11minifly_api8handlers8machines14create_machine00s1_0Bb_
FNDA:0,_RNCNCNCNvNtNtCslqHMLkZRd4y_11minifly_api8handlers8machines14create_machine00s_0Bb_
FNDA:0,_RNCNCNvNtNtCslqHMLkZRd4y_11minifly_api8handlers8machines12stop_machine00B9_
FNDA:0,_RNCNCNvNtNtCslqHMLkZRd4y_11minifly_api8handlers8machines12stop_machine0s_0B9_
FNDA:0,_RNCNCNvNtNtCslqHMLkZRd4y_11minifly_api8handlers8machines13list_machines00B9_
FNDA:0,_RNCNCNvNtNtCslqHMLkZRd4y_11minifly_api8handlers8machines13list_machines0s0_0B9_
FNDA:0,_RNCNCNvNtNtCslqHMLkZRd4y_11minifly_api8handlers8machines13list_machines0s_0B9_
FNDA:0,_RNCNCNvNtNtCslqHMLkZRd4y_11minifly_api8handlers8machines13release_lease00B9_
FNDA:0,_RNCNCNvNtNtCslqHMLkZRd4y_11minifly_api8handlers8machines13release_lease0s_0B9_
FNDA:0,_RNCNCNvNtNtCslqHMLkZRd4y_11minifly_api8handlers8machines14delete_machine00B9_
FNDA:0,_RNCNvNtNtCslqHMLkZRd4y_11minifly_api8handlers8machines11get_machine0B7_
FNDA:0,_RNCNvNtNtCslqHMLkZRd4y_11minifly_api8handlers8machines12create_lease0B7_
FNDA:0,_RNCNvNtNtCslqHMLkZRd4y_11minifly_api8handlers8machines12get_metadata0B7_
FNDA:0,_RNCNvNtNtCslqHMLkZRd4y_11minifly_api8handlers8machines12set_metadata0B7_
FNDA:0,_RNCNvNtNtCslqHMLkZRd4y_11minifly_api8handlers8machines12stop_machine0B7_
FNDA:0,_RNCNvNtNtCslqHMLkZRd4y_11minifly_api8handlers8machines12wait_machine0B7_
FNDA:0,_RNCNvNtNtCslqHMLkZRd4y_11minifly_api8handlers8machines13list_machines0B7_
FNDA:0,_RNCNvNtNtCslqHMLkZRd4y_11minifly_api8handlers8machines13release_lease0B7_
FNDA:0,_RNCNvNtNtCslqHMLkZRd4y_11minifly_api8handlers8machines13start_machine0B7_
FNDA:0,_RNCNvNtNtCslqHMLkZRd4y_11minifly_api8handlers8machines14create_machine0B7_
FNDA:0,_RNCNvNtNtCslqHMLkZRd4y_11minifly_api8handlers8machines14delete_machine0B7_
FNDA:0,_RNCNvNtNtCslqHMLkZRd4y_11minifly_api8handlers8machines14update_machine0B7_
FNDA:0,_RNCNvNtNtCslqHMLkZRd4y_11minifly_api8handlers8machines15delete_metadata0B7_
FNDA:0,_RNCNvNtNtCslqHMLkZRd4y_11minifly_api8handlers8machines15suspend_machine0B7_
FNDA:0,_RNCNvNtNtCslqHMLkZRd4y_11minifly_api8handlers8machines20create_machine_lease0B7_
FNDA:0,_RNCNvNtNtCslqHMLkZRd4y_11minifly_api8handlers8machines9get_lease0B7_
FNDA:0,_RNvNtNtCslqHMLkZRd4y_11minifly_api8handlers8machines11get_machine
FNDA:0,_RNvNtNtCslqHMLkZRd4y_11minifly_api8handlers8machines12create_lease
FNDA:0,_RNvNtNtCslqHMLkZRd4y_11minifly_api8handlers8machines12get_metadata
FNDA:0,_RNvNtNtCslqHMLkZRd4y_11minifly_api8handlers8machines12set_metadata
FNDA:0,_RNvNtNtCslqHMLkZRd4y_11minifly_api8handlers8machines12stop_machine
FNDA:0,_RNvNtNtCslqHMLkZRd4y_11minifly_api8handlers8machines12wait_machine
FNDA:0,_RNvNtNtCslqHMLkZRd4y_11minifly_api8handlers8machines13list_machines
FNDA:0,_RNvNtNtCslqHMLkZRd4y_11minifly_api8handlers8machines13release_lease
FNDA:0,_RNvNtNtCslqHMLkZRd4y_11minifly_api8handlers8machines13start_machine
FNDA:0,_RNvNtNtCslqHMLkZRd4y_11minifly_api8handlers8machines14create_machine
FNDA:0,_RNvNtNtCslqHMLkZRd4y_11minifly_api8handlers8machines14delete_machine
FNDA:0,_RNvNtNtCslqHMLkZRd4y_11minifly_api8handlers8machines14update_machine
FNDA:0,_RNvNtNtCslqHMLkZRd4y_11minifly_api8handlers8machines15delete_metadata
FNDA:0,_RNvNtNtCslqHMLkZRd4y_11minifly_api8handlers8machines15suspend_machine
FNDA:0,_RNvNtNtCslqHMLkZRd4y_11minifly_api8handlers8machines20create_machine_lease
FNDA:0,_RNvNtNtCslqHMLkZRd4y_11minifly_api8handlers8machines9get_lease
FNDA:0,_RNCNCNCNvNtNtCs7k7ABQ2BjtQ_11minifly_api8handlers8machines14create_machine000Bb_
FNDA:0,_RNCNCNCNvNtNtCs7k7ABQ2BjtQ_11minifly_api8handlers8machines14create_machine00s0_0Bb_
FNDA:0,_RNCNCNCNvNtNtCs7k7ABQ2BjtQ_11minifly_api8handlers8machines14create_machine00s1_0Bb_
FNDA:0,_RNCNCNCNvNtNtCs7k7ABQ2BjtQ_11minifly_api8handlers8machines14create_machine00s_0Bb_
FNDA:0,_RNCNCNvNtNtCs7k7ABQ2BjtQ_11minifly_api8handlers8machines12stop_machine00B9_
FNDA:0,_RNCNCNvNtNtCs7k7ABQ2BjtQ_11minifly_api8handlers8machines12stop_machine0s_0B9_
FNDA:0,_RNCNCNvNtNtCs7k7ABQ2BjtQ_11minifly_api8handlers8machines13list_machines00B9_
FNDA:0,_RNCNCNvNtNtCs7k7ABQ2BjtQ_11minifly_api8handlers8machines13list_machines0s0_0B9_
FNDA:0,_RNCNCNvNtNtCs7k7ABQ2BjtQ_11minifly_api8handlers8machines13list_machines0s_0B9_
FNDA:0,_RNCNCNvNtNtCs7k7ABQ2BjtQ_11minifly_api8handlers8machines13release_lease00B9_
FNDA:0,_RNCNCNvNtNtCs7k7ABQ2BjtQ_11minifly_api8handlers8machines13release_lease0s_0B9_
FNDA:0,_RNCNCNvNtNtCs7k7ABQ2BjtQ_11minifly_api8handlers8machines14delete_machine00B9_
FNDA:0,_RNCNvNtNtCs7k7ABQ2BjtQ_11minifly_api8handlers8machines11get_machine0B7_
FNDA:0,_RNCNvNtNtCs7k7ABQ2BjtQ_11minifly_api8handlers8machines12create_lease0B7_
FNDA:0,_RNCNvNtNtCs7k7ABQ2BjtQ_11minifly_api8handlers8machines12get_metadata0B7_
FNDA:0,_RNCNvNtNtCs7k7ABQ2BjtQ_11minifly_api8handlers8machines12set_metadata0B7_
FNDA:0,_RNCNvNtNtCs7k7ABQ2BjtQ_11minifly_api8handlers8machines12stop_machine0B7_
FNDA:0,_RNCNvNtNtCs7k7ABQ2BjtQ_11minifly_api8handlers8machines12wait_machine0B7_
FNDA:0,_RNCNvNtNtCs7k7ABQ2BjtQ_11minifly_api8handlers8machines13list_machines0B7_
FNDA:0,_RNCNvNtNtCs7k7ABQ2BjtQ_11minifly_api8handlers8machines13release_lease0B7_
FNDA:0,_RNCNvNtNtCs7k7ABQ2BjtQ_11minifly_api8handlers8machines13start_machine0B7_
FNDA:0,_RNCNvNtNtCs7k7ABQ2BjtQ_11minifly_api8handlers8machines14create_machine0B7_
FNDA:0,_RNCNvNtNtCs7k7ABQ2BjtQ_11minifly_api8handlers8machines14delete_machine0B7_
FNDA:0,_RNCNvNtNtCs7k7ABQ2BjtQ_11minifly_api8handlers8machines14update_machine0B7_
FNDA:0,_RNCNvNtNtCs7k7ABQ2BjtQ_11minifly_api8handlers8machines15delete_metadata0B7_
FNDA:0,_RNCNvNtNtCs7k7ABQ2BjtQ_11minifly_api8handlers8machines15suspend_machine0B7_
FNDA:0,_RNCNvNtNtCs7k7ABQ2BjtQ_11minifly_api8handlers8machines20create_machine_lease0B7_
FNDA:0,_RNCNvNtNtCs7k7ABQ2BjtQ_11minifly_api8handlers8machines9get_lease0B7_
FNDA:0,_RNvNtNtCs7k7ABQ2BjtQ_11minifly_api8handlers8machines11get_machine
FNDA:0,_RNvNtNtCs7k7ABQ2BjtQ_11minifly_api8handlers8machines12create_lease
FNDA:0,_RNvNtNtCs7k7ABQ2BjtQ_11minifly_api8handlers8machines12get_metadata
FNDA:0,_RNvNtNtCs7k7ABQ2BjtQ_11minifly_api8handlers8machines12set_metadata
FNDA:0,_RNvNtNtCs7k7ABQ2BjtQ_11minifly_api8handlers8machines12stop_machine
FNDA:0,_RNvNtNtCs7k7ABQ2BjtQ_11minifly_api8handlers8machines12wait_machine
FNDA:0,_RNvNtNtCs7k7ABQ2BjtQ_11minifly_api8handlers8machines13list_machines
FNDA:0,_RNvNtNtCs7k7ABQ2BjtQ_11minifly_api8handlers8machines13release_lease
FNDA:0,_RNvNtNtCs7k7ABQ2BjtQ_11minifly_api8handlers8machines13start_machine
FNDA:0,_RNvNtNtCs7k7ABQ2BjtQ_11minifly_api8handlers8machines14create_machine
FNDA:0,_RNvNtNtCs7k7ABQ2BjtQ_11minifly_api8handlers8machines14delete_machine
FNDA:0,_RNvNtNtCs7k7ABQ2BjtQ_11minifly_api8handlers8machines14update_machine
FNDA:0,_RNvNtNtCs7k7ABQ2BjtQ_11minifly_api8handlers8machines15delete_metadata
FNDA:0,_RNvNtNtCs7k7ABQ2BjtQ_11minifly_api8handlers8machines15suspend_machine
FNDA:0,_RNvNtNtCs7k7ABQ2BjtQ_11minifly_api8handlers8machines20create_machine_lease
FNDA:0,_RNvNtNtCs7k7ABQ2BjtQ_11minifly_api8handlers8machines9get_lease
FNF:44
FNH:0
DA:21,0
DA:22,0
DA:23,0
DA:24,0
DA:25,0
DA:26,0
DA:27,0
DA:28,0
DA:29,0
DA:30,0
DA:31,0
DA:34,0
DA:35,0
DA:36,0
DA:38,0
DA:39,0
DA:40,0
DA:41,0
DA:42,0
DA:44,0
DA:45,0
DA:48,0
DA:49,0
DA:50,0
DA:51,0
DA:52,0
DA:88,0
DA:118,0
DA:123,0
DA:124,0
DA:157,0
DA:174,0
DA:176,0
DA:177,0
DA:178,0
DA:179,0
DA:180,0
DA:181,0
DA:182,0
DA:183,0
DA:184,0
DA:186,0
DA:188,0
DA:189,0
DA:190,0
DA:191,0
DA:192,0
DA:193,0
DA:195,0
DA:196,0
DA:197,0
DA:198,0
DA:199,0
DA:200,0
DA:201,0
DA:202,0
DA:204,0
DA:205,0
DA:206,0
DA:207,0
DA:208,0
DA:209,0
DA:210,0
DA:211,0
DA:213,0
DA:215,0
DA:217,0
DA:218,0
DA:219,0
DA:220,0
DA:221,0
DA:222,0
DA:225,0
DA:226,0
DA:227,0
DA:228,0
DA:229,0
DA:234,0
DA:235,0
DA:236,0
DA:237,0
DA:238,0
DA:239,0
DA:240,0
DA:242,0
DA:243,0
DA:244,0
DA:245,0
DA:246,0
DA:247,0
DA:248,0
DA:249,0
DA:250,0
DA:251,0
DA:252,0
DA:253,0
DA:254,0
DA:258,0
DA:259,0
DA:260,0
DA:261,0
DA:262,0
DA:263,0
DA:264,0
DA:265,0
DA:266,0
DA:269,0
DA:270,0
DA:271,0
DA:272,0
DA:332,0
DA:334,0
DA:335,0
DA:336,0
DA:337,0
DA:338,0
DA:339,0
DA:340,0
DA:341,0
DA:342,0
DA:343,0
DA:344,0
DA:345,0
DA:346,0
DA:347,0
DA:348,0
DA:349,0
DA:350,0
DA:351,0
DA:352,0
DA:353,0
DA:354,0
DA:355,0
DA:356,0
DA:357,0
DA:358,0
DA:359,0
DA:360,0
DA:361,0
DA:362,0
DA:363,0
DA:364,0
DA:365,0
DA:366,0
DA:367,0
DA:368,0
DA:369,0
DA:370,0
DA:373,0
DA:374,0
DA:376,0
DA:377,0
DA:378,0
DA:379,0
DA:380,0
DA:381,0
DA:382,0
DA:383,0
DA:384,0
DA:385,0
DA:386,0
DA:387,0
DA:388,0
DA:389,0
DA:390,0
DA:391,0
DA:392,0
DA:393,0
DA:394,0
DA:395,0
DA:396,0
DA:397,0
DA:398,0
DA:399,0
DA:400,0
DA:403,0
DA:404,0
DA:406,0
DA:407,0
DA:408,0
DA:409,0
DA:410,0
DA:411,0
DA:412,0
DA:413,0
DA:414,0
DA:415,0
DA:416,0
DA:417,0
DA:418,0
DA:419,0
DA:420,0
DA:421,0
DA:423,0
DA:425,0
DA:427,0
DA:428,0
DA:429,0
DA:430,0
DA:431,0
DA:432,0
DA:433,0
DA:434,0
DA:435,0
DA:436,0
DA:437,0
DA:438,0
DA:439,0
DA:440,0
DA:441,0
DA:442,0
DA:443,0
DA:444,0
DA:445,0
DA:446,0
DA:447,0
DA:448,0
DA:449,0
DA:450,0
DA:451,0
DA:452,0
DA:454,0
DA:455,0
DA:456,0
DA:457,0
DA:458,0
DA:459,0
DA:460,0
DA:461,0
DA:462,0
DA:463,0
DA:464,0
DA:465,0
DA:467,0
DA:469,0
DA:470,0
DA:471,0
DA:472,0
DA:473,0
DA:474,0
DA:475,0
DA:476,0
DA:478,0
DA:479,0
DA:480,0
DA:481,0
DA:482,0
DA:483,0
DA:484,0
DA:485,0
DA:486,0
DA:487,0
DA:489,0
DA:491,0
DA:493,0
DA:494,0
DA:495,0
DA:496,0
DA:497,0
DA:498,0
DA:499,0
DA:501,0
DA:502,0
DA:503,0
DA:504,0
DA:505,0
DA:506,0
DA:507,0
DA:508,0
DA:510,0
DA:511,0
DA:512,0
DA:513,0
DA:514,0
DA:515,0
DA:516,0
DA:518,0
DA:521,0
DA:522,0
DA:523,0
DA:524,0
DA:525,0
DA:526,0
DA:527,0
DA:528,0
DA:529,0
DA:530,0
DA:531,0
DA:532,0
DA:533,0
BRF:0
BRH:0
LF:314
LH:0
end_of_record
SF:/Users/jaredreyes/Developer/minifly/minifly-api/src/handlers/mod.rs
FN:14,_RNvNtCscDZMq9zvJMc_11minifly_api8handlers6routes
FN:14,_RNvNtCslqHMLkZRd4y_11minifly_api8handlers6routes
FN:14,_RNvNtCs7k7ABQ2BjtQ_11minifly_api8handlers6routes
FNDA:0,_RNvNtCscDZMq9zvJMc_11minifly_api8handlers6routes
FNDA:0,_RNvNtCslqHMLkZRd4y_11minifly_api8handlers6routes
FNDA:0,_RNvNtCs7k7ABQ2BjtQ_11minifly_api8handlers6routes
FNF:1
FNH:0
DA:14,0
DA:15,0
DA:16,0
DA:17,0
DA:18,0
DA:19,0
DA:20,0
DA:21,0
DA:22,0
DA:23,0
DA:24,0
DA:25,0
DA:26,0
DA:27,0
DA:28,0
DA:29,0
DA:30,0
DA:31,0
DA:32,0
DA:33,0
DA:34,0
DA:35,0
DA:36,0
DA:37,0
DA:38,0
DA:39,0
DA:40,0
DA:41,0
DA:42,0
DA:43,0
DA:44,0
DA:45,0
DA:46,0
DA:47,0
DA:48,0
DA:49,0
DA:50,0
DA:51,0
DA:52,0
DA:53,0
DA:54,0
DA:55,0
DA:56,0
DA:57,0
DA:58,0
DA:59,0
DA:60,0
DA:61,0
BRF:0
BRH:0
LF:48
LH:0
end_of_record
SF:/Users/jaredreyes/Developer/minifly/minifly-api/src/handlers/volumes.rs
FN:45,_RNCNvNtNtCscDZMq9zvJMc_11minifly_api8handlers7volumes10get_volume0B7_
FN:14,_RNCNvNtNtCscDZMq9zvJMc_11minifly_api8handlers7volumes12list_volumes0B7_
FN:23,_RNCNvNtNtCscDZMq9zvJMc_11minifly_api8handlers7volumes13create_volume0B7_
FN:53,_RNCNvNtNtCscDZMq9zvJMc_11minifly_api8handlers7volumes13delete_volume0B7_
FN:42,_RNvNtNtCscDZMq9zvJMc_11minifly_api8handlers7volumes10get_volume
FN:11,_RNvNtNtCscDZMq9zvJMc_11minifly_api8handlers7volumes12list_volumes
FN:19,_RNvNtNtCscDZMq9zvJMc_11minifly_api8handlers7volumes13create_volume
FN:50,_RNvNtNtCscDZMq9zvJMc_11minifly_api8handlers7volumes13delete_volume
FN:45,_RNCNvNtNtCslqHMLkZRd4y_11minifly_api8handlers7volumes10get_volume0B7_
FN:14,_RNCNvNtNtCslqHMLkZRd4y_11minifly_api8handlers7volumes12list_volumes0B7_
FN:23,_RNCNvNtNtCslqHMLkZRd4y_11minifly_api8handlers7volumes13create_volume0B7_
FN:53,_RNCNvNtNtCslqHMLkZRd4y_11minifly_api8handlers7volumes13delete_volume0B7_
FN:42,_RNvNtNtCslqHMLkZRd4y_11minifly_api8handlers7volumes10get_volume
FN:11,_RNvNtNtCslqHMLkZRd4y_11minifly_api8handlers7volumes12list_volumes
FN:19,_RNvNtNtCslqHMLkZRd4y_11minifly_api8handlers7volumes13create_volume
FN:50,_RNvNtNtCslqHMLkZRd4y_11minifly_api8handlers7volumes13delete_volume
FN:45,_RNCNvNtNtCs7k7ABQ2BjtQ_11minifly_api8handlers7volumes10get_volume0B7_
FN:14,_RNCNvNtNtCs7k7ABQ2BjtQ_11minifly_api8handlers7volumes12list_volumes0B7_
FN:23,_RNCNvNtNtCs7k7ABQ2BjtQ_11minifly_api8handlers7volumes13create_volume0B7_
FN:53,_RNCNvNtNtCs7k7ABQ2BjtQ_11minifly_api8handlers7volumes13delete_volume0B7_
FN:42,_RNvNtNtCs7k7ABQ2BjtQ_11minifly_api8handlers7volumes10get_volume
FN:11,_RNvNtNtCs7k7ABQ2BjtQ_11minifly_api8handlers7volumes12list_volumes
FN:19,_RNvNtNtCs7k7ABQ2BjtQ_11minifly_api8handlers7volumes13create_volume
FN:50,_RNvNtNtCs7k7ABQ2BjtQ_11minifly_api8handlers7volumes13delete_volume
FNDA:0,_RNCNvNtNtCscDZMq9zvJMc_11minifly_api8handlers7volumes10get_volume0B7_
FNDA:0,_RNCNvNtNtCscDZMq9zvJMc_11minifly_api8handlers7volumes12list_volumes0B7_
FNDA:0,_RNCNvNtNtCscDZMq9zvJMc_11minifly_api8handlers7volumes13create_volume0B7_
FNDA:0,_RNCNvNtNtCscDZMq9zvJMc_11minifly_api8handlers7volumes13delete_volume0B7_
FNDA:0,_RNvNtNtCscDZMq9zvJMc_11minifly_api8handlers7volumes10get_volume
FNDA:0,_RNvNtNtCscDZMq9zvJMc_11minifly_api8handlers7volumes12list_volumes
FNDA:0,_RNvNtNtCscDZMq9zvJMc_11minifly_api8handlers7volumes13create_volume
FNDA:0,_RNvNtNtCscDZMq9zvJMc_11minifly_api8handlers7volumes13delete_volume
FNDA:0,_RNCNvNtNtCslqHMLkZRd4y_11minifly_api8handlers7volumes10get_volume0B7_
FNDA:0,_RNCNvNtNtCslqHMLkZRd4y_11minifly_api8handlers7volumes12list_volumes0B7_
FNDA:0,_RNCNvNtNtCslqHMLkZRd4y_11minifly_api8handlers7volumes13create_volume0B7_
FNDA:0,_RNCNvNtNtCslqHMLkZRd4y_11minifly_api8handlers7volumes13delete_volume0B7_
FNDA:0,_RNvNtNtCslqHMLkZRd4y_11minifly_api8handlers7volumes10get_volume
FNDA:0,_RNvNtNtCslqHMLkZRd4y_11minifly_api8handlers7volumes12list_volumes
FNDA:0,_RNvNtNtCslqHMLkZRd4y_11minifly_api8handlers7volumes13create_volume
FNDA:0,_RNvNtNtCslqHMLkZRd4y_11minifly_api8handlers7volumes13delete_volume
FNDA:0,_RNCNvNtNtCs7k7ABQ2BjtQ_11minifly_api8handlers7volumes10get_volume0B7_
FNDA:0,_RNCNvNtNtCs7k7ABQ2BjtQ_11minifly_api8handlers7volumes12list_volumes0B7_
FNDA:0,_RNCNvNtNtCs7k7ABQ2BjtQ_11minifly_api8handlers7volumes13create_volume0B7_
FNDA:0,_RNCNvNtNtCs7k7ABQ2BjtQ_11minifly_api8handlers7volumes13delete_volume0B7_
FNDA:0,_RNvNtNtCs7k7ABQ2BjtQ_11minifly_api8handlers7volumes10get_volume
FNDA:0,_RNvNtNtCs7k7ABQ2BjtQ_11minifly_api8handlers7volumes12list_volumes
FNDA:0,_RNvNtNtCs7k7ABQ2BjtQ_11minifly_api8handlers7volumes13create_volume
FNDA:0,_RNvNtNtCs7k7ABQ2BjtQ_11minifly_api8handlers7volumes13delete_volume
FNF:8
FNH:0
DA:11,0
DA:12,0
DA:13,0
DA:14,0
DA:15,0
DA:16,0
DA:17,0
DA:19,0
DA:20,0
DA:21,0
DA:22,0
DA:23,0
DA:24,0
DA:25,0
DA:26,0
DA:27,0
DA:28,0
DA:29,0
DA:30,0
DA:31,0
DA:32,0
DA:33,0
DA:34,0
DA:35,0
DA:36,0
DA:37,0
DA:38,0
DA:39,0
DA:40,0
DA:42,0
DA:43,0
DA:44,0
DA:45,0
DA:46,0
DA:47,0
DA:48,0
DA:50,0
DA:51,0
DA:52,0
DA:53,0
DA:54,0
DA:55,0
DA:56,0
BRF:0
BRH:0
LF:47
LH:0
end_of_record
SF:/Users/jaredreyes/Developer/minifly/minifly-api/src/health.rs
FN:225,_RNCNCNCNvMNtCscDZMq9zvJMc_11minifly_api6healthNtB8_13HealthChecker22test_docker_connection000Ba_
FN:225,_RNCNCNvMNtCscDZMq9zvJMc_11minifly_api6healthNtB6_13HealthChecker22test_docker_connection00B8_
FN:229,_RNCNCNvMNtCscDZMq9zvJMc_11minifly_api6healthNtB6_13HealthChecker22test_docker_connection0s_0B8_
FN:54,_RNCNvMNtCscDZMq9zvJMc_11minifly_api6healthNtB4_13HealthChecker12check_health0B6_
FN:308,_RNCNvMNtCscDZMq9zvJMc_11minifly_api6healthNtB4_13HealthChecker16generate_summary0B6_
FN:235,_RNCNvMNtCscDZMq9zvJMc_11minifly_api6healthNtB4_13HealthChecker18test_litefs_mounts0B6_
FN:123,_RNCNvMNtCscDZMq9zvJMc_11minifly_api6healthNtB4_13HealthChecker19check_docker_health0B6_
FN:154,_RNCNvMNtCscDZMq9zvJMc_11minifly_api6healthNtB4_13HealthChecker19check_litefs_health0B6_
FN:96,_RNCNvMNtCscDZMq9zvJMc_11minifly_api6healthNtB4_13HealthChecker21check_database_health0B6_
FN:220,_RNCNvMNtCscDZMq9zvJMc_11minifly_api6healthNtB4_13HealthChecker22test_docker_connection0B6_
FN:262,_RNCNvMNtCscDZMq9zvJMc_11minifly_api6healthNtB4_13HealthChecker22test_filesystem_access0B6_
FN:182,_RNCNvMNtCscDZMq9zvJMc_11minifly_api6healthNtB4_13HealthChecker23check_filesystem_health0B6_
FN:209,_RNCNvMNtCscDZMq9zvJMc_11minifly_api6healthNtB4_13HealthChecker24test_database_connection0B6_
FN:333,_RNCNvNtCscDZMq9zvJMc_11minifly_api6health14health_handler0B5_
FN:354,_RNCNvNtCscDZMq9zvJMc_11minifly_api6health16liveness_handler0B5_
FN:360,_RNCNvNtCscDZMq9zvJMc_11minifly_api6health17readiness_handler0B5_
FN:54,_RNvMNtCscDZMq9zvJMc_11minifly_api6healthNtB2_13HealthChecker12check_health
FN:305,_RNvMNtCscDZMq9zvJMc_11minifly_api6healthNtB2_13HealthChecker16generate_summary
FN:235,_RNvMNtCscDZMq9zvJMc_11minifly_api6healthNtB2_13HealthChecker18test_litefs_mounts
FN:123,_RNvMNtCscDZMq9zvJMc_11minifly_api6healthNtB2_13HealthChecker19check_docker_health
FN:154,_RNvMNtCscDZMq9zvJMc_11minifly_api6healthNtB2_13HealthChecker19check_litefs_health
FN:96,_RNvMNtCscDZMq9zvJMc_11minifly_api6healthNtB2_13HealthChecker21check_database_health
FN:220,_RNvMNtCscDZMq9zvJMc_11minifly_api6healthNtB2_13HealthChecker22test_docker_connection
FN:262,_RNvMNtCscDZMq9zvJMc_11minifly_api6healthNtB2_13HealthChecker22test_filesystem_access
FN:182,_RNvMNtCscDZMq9zvJMc_11minifly_api6healthNtB2_13HealthChecker23check_filesystem_health
FN:281,_RNvMNtCscDZMq9zvJMc_11minifly_api6healthNtB2_13HealthChecker24determine_overall_status
FN:209,_RNvMNtCscDZMq9zvJMc_11minifly_api6healthNtB2_13HealthChecker24test_database_connection
FN:47,_RNvMNtCscDZMq9zvJMc_11minifly_api6healthNtB2_13HealthChecker3new
FN:333,_RNvNtCscDZMq9zvJMc_11minifly_api6health14health_handler
FN:354,_RNvNtCscDZMq9zvJMc_11minifly_api6health16liveness_handler
FN:360,_RNvNtCscDZMq9zvJMc_11minifly_api6health17readiness_handler
FN:54,_RNvMNtCslqHMLkZRd4y_11minifly_api6healthNtB2_13HealthChecker12check_health
FN:305,_RNvMNtCslqHMLkZRd4y_11minifly_api6healthNtB2_13HealthChecker16generate_summary
FN:235,_RNvMNtCslqHMLkZRd4y_11minifly_api6healthNtB2_13HealthChecker18test_litefs_mounts
FN:123,_RNvMNtCslqHMLkZRd4y_11minifly_api6healthNtB2_13HealthChecker19check_docker_health
FN:154,_RNvMNtCslqHMLkZRd4y_11minifly_api6healthNtB2_13HealthChecker19check_litefs_health
FN:96,_RNvMNtCslqHMLkZRd4y_11minifly_api6healthNtB2_13HealthChecker21check_database_health
FN:220,_RNvMNtCslqHMLkZRd4y_11minifly_api6healthNtB2_13HealthChecker22test_docker_connection
FN:262,_RNvMNtCslqHMLkZRd4y_11minifly_api6healthNtB2_13HealthChecker22test_filesystem_access
FN:182,_RNvMNtCslqHMLkZRd4y_11minifly_api6healthNtB2_13HealthChecker23check_filesystem_health
FN:281,_RNvMNtCslqHMLkZRd4y_11minifly_api6healthNtB2_13HealthChecker24determine_overall_status
FN:209,_RNvMNtCslqHMLkZRd4y_11minifly_api6healthNtB2_13HealthChecker24test_database_connection
FN:47,_RNvMNtCslqHMLkZRd4y_11minifly_api6healthNtB2_13HealthChecker3new
FN:333,_RNvNtCslqHMLkZRd4y_11minifly_api6health14health_handler
FN:354,_RNvNtCslqHMLkZRd4y_11minifly_api6health16liveness_handler
FN:360,_RNvNtCslqHMLkZRd4y_11minifly_api6health17readiness_handler
FN:225,_RNCNCNCNvMNtCslqHMLkZRd4y_11minifly_api6healthNtB8_13HealthChecker22test_docker_connection000Ba_
FN:225,_RNCNCNvMNtCslqHMLkZRd4y_11minifly_api6healthNtB6_13HealthChecker22test_docker_connection00B8_
FN:229,_RNCNCNvMNtCslqHMLkZRd4y_11minifly_api6healthNtB6_13HealthChecker22test_docker_connection0s_0B8_
FN:54,_RNCNvMNtCslqHMLkZRd4y_11minifly_api6healthNtB4_13HealthChecker12check_health0B6_
FN:308,_RNCNvMNtCslqHMLkZRd4y_11minifly_api6healthNtB4_13HealthChecker16generate_summary0B6_
FN:235,_RNCNvMNtCslqHMLkZRd4y_11minifly_api6healthNtB4_13HealthChecker18test_litefs_mounts0B6_
FN:123,_RNCNvMNtCslqHMLkZRd4y_11minifly_api6healthNtB4_13HealthChecker19check_docker_health0B6_
FN:154,_RNCNvMNtCslqHMLkZRd4y_11minifly_api6healthNtB4_13HealthChecker19check_litefs_health0B6_
FN:96,_RNCNvMNtCslqHMLkZRd4y_11minifly_api6healthNtB4_13HealthChecker21check_database_health0B6_
FN:220,_RNCNvMNtCslqHMLkZRd4y_11minifly_api6healthNtB4_13HealthChecker22test_docker_connection0B6_
FN:262,_RNCNvMNtCslqHMLkZRd4y_11minifly_api6healthNtB4_13HealthChecker22test_filesystem_access0B6_
FN:182,_RNCNvMNtCslqHMLkZRd4y_11minifly_api6healthNtB4_13HealthChecker23check_filesystem_health0B6_
FN:209,_RNCNvMNtCslqHMLkZRd4y_11minifly_api6healthNtB4_13HealthChecker24test_database_connection0B6_
FN:333,_RNCNvNtCslqHMLkZRd4y_11minifly_api6health14health_handler0B5_
FN:354,_RNCNvNtCslqHMLkZRd4y_11minifly_api6health16liveness_handler0B5_
FN:360,_RNCNvNtCslqHMLkZRd4y_11minifly_api6health17readiness_handler0B5_
FN:225,_RNCNCNCNvMNtCs7k7ABQ2BjtQ_11minifly_api6healthNtB8_13HealthChecker22test_docker_connection000Ba_
FN:225,_RNCNCNvMNtCs7k7ABQ2BjtQ_11minifly_api6healthNtB6_13HealthChecker22test_docker_connection00B8_
FN:229,_RNCNCNvMNtCs7k7ABQ2BjtQ_11minifly_api6healthNtB6_13HealthChecker22test_docker_connection0s_0B8_
FN:54,_RNCNvMNtCs7k7ABQ2BjtQ_11minifly_api6healthNtB4_13HealthChecker12check_health0B6_
FN:308,_RNCNvMNtCs7k7ABQ2BjtQ_11minifly_api6healthNtB4_13HealthChecker16generate_summary0B6_
FN:235,_RNCNvMNtCs7k7ABQ2BjtQ_11minifly_api6healthNtB4_13HealthChecker18test_litefs_mounts0B6_
FN:123,_RNCNvMNtCs7k7ABQ2BjtQ_11minifly_api6healthNtB4_13HealthChecker19check_docker_health0B6_
FN:154,_RNCNvMNtCs7k7ABQ2BjtQ_11minifly_api6healthNtB4_13HealthChecker19check_litefs_health0B6_
FN:96,_RNCNvMNtCs7k7ABQ2BjtQ_11minifly_api6healthNtB4_13HealthChecker21check_database_health0B6_
FN:220,_RNCNvMNtCs7k7ABQ2BjtQ_11minifly_api6healthNtB4_13HealthChecker22test_docker_connection0B6_
FN:262,_RNCNvMNtCs7k7ABQ2BjtQ_11minifly_api6healthNtB4_13HealthChecker22test_filesystem_access0B6_
FN:182,_RNCNvMNtCs7k7ABQ2BjtQ_11minifly_api6healthNtB4_13HealthChecker23check_filesystem_health0B6_
FN:209,_RNCNvMNtCs7k7ABQ2BjtQ_11minifly_api6healthNtB4_13HealthChecker24test_database_connection0B6_
FN:333,_RNCNvNtCs7k7ABQ2BjtQ_11minifly_api6health14health_handler0B5_
FN:354,_RNCNvNtCs7k7ABQ2BjtQ_11minifly_api6health16liveness_handler0B5_
FN:360,_RNCNvNtCs7k7ABQ2BjtQ_11minifly_api6health17readiness_handler0B5_
FN:54,_RNvMNtCs7k7ABQ2BjtQ_11minifly_api6healthNtB2_13HealthChecker12check_health
FN:305,_RNvMNtCs7k7ABQ2BjtQ_11minifly_api6healthNtB2_13HealthChecker16generate_summary
FN:235,_RNvMNtCs7k7ABQ2BjtQ_11minifly_api6healthNtB2_13HealthChecker18test_litefs_mounts
FN:123,_RNvMNtCs7k7ABQ2BjtQ_11minifly_api6healthNtB2_13HealthChecker19check_docker_health
FN:154,_RNvMNtCs7k7ABQ2BjtQ_11minifly_api6healthNtB2_13HealthChecker19check_litefs_health
FN:96,_RNvMNtCs7k7ABQ2BjtQ_11minifly_api6healthNtB2_13HealthChecker21check_database_health
FN:220,_RNvMNtCs7k7ABQ2BjtQ_11minifly_api6healthNtB2_13HealthChecker22test_docker_connection
FN:262,_RNvMNtCs7k7ABQ2BjtQ_11minifly_api6healthNtB2_13HealthChecker22test_filesystem_access
FN:182,_RNvMNtCs7k7ABQ2BjtQ_11minifly_api6healthNtB2_13HealthChecker23check_filesystem_health
FN:281,_RNvMNtCs7k7ABQ2BjtQ_11minifly_api6healthNtB2_13HealthChecker24determine_overall_status
FN:209,_RNvMNtCs7k7ABQ2BjtQ_11minifly_api6healthNtB2_13HealthChecker24test_database_connection
FN:47,_RNvMNtCs7k7ABQ2BjtQ_11minifly_api6healthNtB2_13HealthChecker3new
FN:333,_RNvNtCs7k7ABQ2BjtQ_11minifly_api6health14health_handler
FN:354,_RNvNtCs7k7ABQ2BjtQ_11minifly_api6health16liveness_handler
FN:360,_RNvNtCs7k7ABQ2BjtQ_11minifly_api6health17readiness_handler
FNDA:0,_RNCNCNCNvMNtCscDZMq9zvJMc_11minifly_api6healthNtB8_13HealthChecker22test_docker_connection000Ba_
FNDA:0,_RNCNCNvMNtCscDZMq9zvJMc_11minifly_api6healthNtB6_13HealthChecker22test_docker_connection00B8_
FNDA:0,_RNCNCNvMNtCscDZMq9zvJMc_11minifly_api6healthNtB6_13HealthChecker22test_docker_connection0s_0B8_
FNDA:0,_RNCNvMNtCscDZMq9zvJMc_11minifly_api6healthNtB4_13HealthChecker12check_health0B6_
FNDA:0,_RNCNvMNtCscDZMq9zvJMc_11minifly_api6healthNtB4_13HealthChecker16generate_summary0B6_
FNDA:0,_RNCNvMNtCscDZMq9zvJMc_11minifly_api6healthNtB4_13HealthChecker18test_litefs_mounts0B6_
FNDA:0,_RNCNvMNtCscDZMq9zvJMc_11minifly_api6healthNtB4_13HealthChecker19check_docker_health0B6_
FNDA:0,_RNCNvMNtCscDZMq9zvJMc_11minifly_api6healthNtB4_13HealthChecker19check_litefs_health0B6_
FNDA:0,_RNCNvMNtCscDZMq9zvJMc_11minifly_api6healthNtB4_13HealthChecker21check_database_health0B6_
FNDA:0,_RNCNvMNtCscDZMq9zvJMc_11minifly_api6healthNtB4_13HealthChecker22test_docker_connection0B6_
FNDA:0,_RNCNvMNtCscDZMq9zvJMc_11minifly_api6healthNtB4_13HealthChecker22test_filesystem_access0B6_
FNDA:0,_RNCNvMNtCscDZMq9zvJMc_11minifly_api6healthNtB4_13HealthChecker23check_filesystem_health0B6_
FNDA:0,_RNCNvMNtCscDZMq9zvJMc_11minifly_api6healthNtB4_13HealthChecker24test_database_connection0B6_
FNDA:0,_RNCNvNtCscDZMq9zvJMc_11minifly_api6health14health_handler0B5_
FNDA:0,_RNCNvNtCscDZMq9zvJMc_11minifly_api6health16liveness_handler0B5_
FNDA:0,_RNCNvNtCscDZMq9zvJMc_11minifly_api6health17readiness_handler0B5_
FNDA:0,_RNvMNtCscDZMq9zvJMc_11minifly_api6healthNtB2_13HealthChecker12check_health
FNDA:0,_RNvMNtCscDZMq9zvJMc_11minifly_api6healthNtB2_13HealthChecker16generate_summary
FNDA:0,_RNvMNtCscDZMq9zvJMc_11minifly_api6healthNtB2_13HealthChecker18test_litefs_mounts
FNDA:0,_RNvMNtCscDZMq9zvJMc_11minifly_api6healthNtB2_13HealthChecker19check_docker_health
FNDA:0,_RNvMNtCscDZMq9zvJMc_11minifly_api6healthNtB2_13HealthChecker19check_litefs_health
FNDA:0,_RNvMNtCscDZMq9zvJMc_11minifly_api6healthNtB2_13HealthChecker21check_database_health
FNDA:0,_RNvMNtCscDZMq9zvJMc_11minifly_api6healthNtB2_13HealthChecker22test_docker_connection
FNDA:0,_RNvMNtCscDZMq9zvJMc_11minifly_api6healthNtB2_13HealthChecker22test_filesystem_access
FNDA:0,_RNvMNtCscDZMq9zvJMc_11minifly_api6healthNtB2_13HealthChecker23check_filesystem_health
FNDA:0,_RNvMNtCscDZMq9zvJMc_11minifly_api6healthNtB2_13HealthChecker24determine_overall_status
FNDA:0,_RNvMNtCscDZMq9zvJMc_11minifly_api6healthNtB2_13HealthChecker24test_database_connection
FNDA:0,_RNvMNtCscDZMq9zvJMc_11minifly_api6healthNtB2_13HealthChecker3new
FNDA:0,_RNvNtCscDZMq9zvJMc_11minifly_api6health14health_handler
FNDA:0,_RNvNtCscDZMq9zvJMc_11minifly_api6health16liveness_handler
FNDA:0,_RNvNtCscDZMq9zvJMc_11minifly_api6health17readiness_handler
FNDA:0,_RNvMNtCslqHMLkZRd4y_11minifly_api6healthNtB2_13HealthChecker12check_health
FNDA:0,_RNvMNtCslqHMLkZRd4y_11minifly_api6healthNtB2_13HealthChecker16generate_summary
FNDA:0,_RNvMNtCslqHMLkZRd4y_11minifly_api6healthNtB2_13HealthChecker18test_litefs_mounts
FNDA:0,_RNvMNtCslqHMLkZRd4y_11minifly_api6healthNtB2_13HealthChecker19check_docker_health
FNDA:0,_RNvMNtCslqHMLkZRd4y_11minifly_api6healthNtB2_13HealthChecker19check_litefs_health
FNDA:0,_RNvMNtCslqHMLkZRd4y_11minifly_api6healthNtB2_13HealthChecker21check_database_health
FNDA:0,_RNvMNtCslqHMLkZRd4y_11minifly_api6healthNtB2_13HealthChecker22test_docker_connection
FNDA:0,_RNvMNtCslqHMLkZRd4y_11minifly_api6healthNtB2_13HealthChecker22test_filesystem_access
FNDA:0,_RNvMNtCslqHMLkZRd4y_11minifly_api6healthNtB2_13HealthChecker23check_filesystem_health
FNDA:0,_RNvMNtCslqHMLkZRd4y_11minifly_api6healthNtB2_13HealthChecker24determine_overall_status
FNDA:0,_RNvMNtCslqHMLkZRd4y_11minifly_api6healthNtB2_13HealthChecker24test_database_connection
FNDA:0,_RNvMNtCslqHMLkZRd4y_11minifly_api6healthNtB2_13HealthChecker3new
FNDA:0,_RNvNtCslqHMLkZRd4y_11minifly_api6health14health_handler
FNDA:0,_RNvNtCslqHMLkZRd4y_11minifly_api6health16liveness_handler
FNDA:0,_RNvNtCslqHMLkZRd4y_11minifly_api6health17readiness_handler
FNDA:0,_RNCNCNCNvMNtCslqHMLkZRd4y_11minifly_api6healthNtB8_13HealthChecker22test_docker_connection000Ba_
FNDA:0,_RNCNCNvMNtCslqHMLkZRd4y_11minifly_api6healthNtB6_13HealthChecker22test_docker_connection00B8_
FNDA:0,_RNCNCNvMNtCslqHMLkZRd4y_11minifly_api6healthNtB6_13HealthChecker22test_docker_connection0s_0B8_
FNDA:0,_RNCNvMNtCslqHMLkZRd4y_11minifly_api6healthNtB4_13HealthChecker12check_health0B6_
FNDA:0,_RNCNvMNtCslqHMLkZRd4y_11minifly_api6healthNtB4_13HealthChecker16generate_summary0B6_
FNDA:0,_RNCNvMNtCslqHMLkZRd4y_11minifly_api6healthNtB4_13HealthChecker18test_litefs_mounts0B6_
FNDA:0,_RNCNvMNtCslqHMLkZRd4y_11minifly_api6healthNtB4_13HealthChecker19check_docker_health0B6_
FNDA:0,_RNCNvMNtCslqHMLkZRd4y_11minifly_api6healthNtB4_13HealthChecker19check_litefs_health0B6_
FNDA:0,_RNCNvMNtCslqHMLkZRd4y_11minifly_api6healthNtB4_13HealthChecker21check_database_health0B6_
FNDA:0,_RNCNvMNtCslqHMLkZRd4y_11minifly_api6healthNtB4_13HealthChecker22test_docker_connection0B6_
FNDA:0,_RNCNvMNtCslqHMLkZRd4y_11minifly_api6healthNtB4_13HealthChecker22test_filesystem_access0B6_
FNDA:0,_RNCNvMNtCslqHMLkZRd4y_11minifly_api6healthNtB4_13HealthChecker23check_filesystem_health0B6_
FNDA:0,_RNCNvMNtCslqHMLkZRd4y_11minifly_api6healthNtB4_13HealthChecker24test_database_connection0B6_
FNDA:0,_RNCNvNtCslqHMLkZRd4y_11minifly_api6health14health_handler0B5_
FNDA:0,_RNCNvNtCslqHMLkZRd4y_11minifly_api6health16liveness_handler0B5_
FNDA:0,_RNCNvNtCslqHMLkZRd4y_11minifly_api6health17readiness_handler0B5_
FNDA:0,_RNCNCNCNvMNtCs7k7ABQ2BjtQ_11minifly_api6healthNtB8_13HealthChecker22test_docker_connection000Ba_
FNDA:0,_RNCNCNvMNtCs7k7ABQ2BjtQ_11minifly_api6healthNtB6_13HealthChecker22test_docker_connection00B8_
FNDA:0,_RNCNCNvMNtCs7k7ABQ2BjtQ_11minifly_api6healthNtB6_13HealthChecker22test_docker_connection0s_0B8_
FNDA:0,_RNCNvMNtCs7k7ABQ2BjtQ_11minifly_api6healthNtB4_13HealthChecker12check_health0B6_
FNDA:0,_RNCNvMNtCs7k7ABQ2BjtQ_11minifly_api6healthNtB4_13HealthChecker16generate_summary0B6_
FNDA:0,_RNCNvMNtCs7k7ABQ2BjtQ_11minifly_api6healthNtB4_13HealthChecker18test_litefs_mounts0B6_
FNDA:0,_RNCNvMNtCs7k7ABQ2BjtQ_11minifly_api6healthNtB4_13HealthChecker19check_docker_health0B6_
FNDA:0,_RNCNvMNtCs7k7ABQ2BjtQ_11minifly_api6healthNtB4_13HealthChecker19check_litefs_health0B6_
FNDA:0,_RNCNvMNtCs7k7ABQ2BjtQ_11minifly_api6healthNtB4_13HealthChecker21check_database_health0B6_
FNDA:0,_RNCNvMNtCs7k7ABQ2BjtQ_11minifly_api6healthNtB4_13HealthChecker22test_docker_connection0B6_
FNDA:0,_RNCNvMNtCs7k7ABQ2BjtQ_11minifly_api6healthNtB4_13HealthChecker22test_filesystem_access0B6_
FNDA:0,_RNCNvMNtCs7k7ABQ2BjtQ_11minifly_api6healthNtB4_13HealthChecker23check_filesystem_health0B6_
FNDA:0,_RNCNvMNtCs7k7ABQ2BjtQ_11minifly_api6healthNtB4_13HealthChecker24test_database_connection0B6_
FNDA:0,_RNCNvNtCs7k7ABQ2BjtQ_11minifly_api6health14health_handler0B5_
FNDA:0,_RNCNvNtCs7k7ABQ2BjtQ_11minifly_api6health16liveness_handler0B5_
FNDA:0,_RNCNvNtCs7k7ABQ2BjtQ_11minifly_api6health17readiness_handler0B5_
FNDA:0,_RNvMNtCs7k7ABQ2BjtQ_11minifly_api6healthNtB2_13HealthChecker12check_health
FNDA:0,_RNvMNtCs7k7ABQ2BjtQ_11minifly_api6healthNtB2_13HealthChecker16generate_summary
FNDA:0,_RNvMNtCs7k7ABQ2BjtQ_11minifly_api6healthNtB2_13HealthChecker18test_litefs_mounts
FNDA:0,_RNvMNtCs7k7ABQ2BjtQ_11minifly_api6healthNtB2_13HealthChecker19check_docker_health
FNDA:0,_RNvMNtCs7k7ABQ2BjtQ_11minifly_api6healthNtB2_13HealthChecker19check_litefs_health
FNDA:0,_RNvMNtCs7k7ABQ2BjtQ_11minifly_api6healthNtB2_13HealthChecker21check_database_health
FNDA:0,_RNvMNtCs7k7ABQ2BjtQ_11minifly_api6healthNtB2_13HealthChecker22test_docker_connection
FNDA:0,_RNvMNtCs7k7ABQ2BjtQ_11minifly_api6healthNtB2_13HealthChecker22test_filesystem_access
FNDA:0,_RNvMNtCs7k7ABQ2BjtQ_11minifly_api6healthNtB2_13HealthChecker23check_filesystem_health
FNDA:0,_RNvMNtCs7k7ABQ2BjtQ_11minifly_api6healthNtB2_13HealthChecker24determine_overall_status
FNDA:0,_RNvMNtCs7k7ABQ2BjtQ_11minifly_api6healthNtB2_13HealthChecker24test_database_connection
FNDA:0,_RNvMNtCs7k7ABQ2BjtQ_11minifly_api6healthNtB2_13HealthChecker3new
FNDA:0,_RNvNtCs7k7ABQ2BjtQ_11minifly_api6health14health_handler
FNDA:0,_RNvNtCs7k7ABQ2BjtQ_11minifly_api6health16liveness_handler
FNDA:0,_RNvNtCs7k7ABQ2BjtQ_11minifly_api6health17readiness_handler
FNF:31
FNH:0
DA:47,0
DA:48,0
DA:49,0
DA:50,0
DA:51,0
DA:54,0
DA:55,0
DA:56,0
DA:57,0
DA:58,0
DA:59,0
DA:60,0
DA:61,0
DA:64,0
DA:67,0
DA:70,0
DA:73,0
DA:74,0
DA:75,0
DA:76,0
DA:77,0
DA:78,0
DA:80,0
DA:81,0
DA:82,0
DA:85,0
DA:86,0
DA:87,0
DA:88,0
DA:89,0
DA:90,0
DA:91,0
DA:92,0
DA:93,0
DA:96,0
DA:97,0
DA:98,0
DA:99,0
DA:101,0
DA:102,0
DA:103,0
DA:104,0
DA:105,0
DA:106,0
DA:107,0
DA:109,0
DA:110,0
DA:111,0
DA:112,0
DA:113,0
DA:114,0
DA:115,0
DA:116,0
DA:117,0
DA:120,0
DA:123,0
DA:124,0
DA:125,0
DA:126,0
DA:127,0
DA:128,0
DA:129,0
DA:130,0
DA:131,0
DA:132,0
DA:133,0
DA:134,0
DA:135,0
DA:136,0
DA:137,0
DA:138,0
DA:140,0
DA:141,0
DA:142,0
DA:143,0
DA:144,0
DA:145,0
DA:146,0
DA:147,0
DA:148,0
DA:151,0
DA:154,0
DA:155,0
DA:156,0
DA:157,0
DA:158,0
DA:159,0
DA:160,0
DA:161,0
DA:162,0
DA:163,0
DA:164,0
DA:165,0
DA:166,0
DA:168,0
DA:169,0
DA:170,0
DA:171,0
DA:172,0
DA:173,0
DA:174,0
DA:175,0
DA:176,0
DA:179,0
DA:182,0
DA:183,0
DA:184,0
DA:185,0
DA:186,0
DA:187,0
DA:188,0
DA:189,0
DA:190,0
DA:191,0
DA:192,0
DA:193,0
DA:195,0
DA:196,0
DA:197,0
DA:198,0
DA:199,0
DA:200,0
DA:201,0
DA:202,0
DA:203,0
DA:206,0
DA:209,0
DA:211,0
DA:212,0
DA:213,0
DA:215,0
DA:216,0
DA:217,0
DA:220,0
DA:221,0
DA:222,0
DA:224,0
DA:225,0
DA:226,0
DA:227,0
DA:228,0
DA:229,0
DA:230,0
DA:231,0
DA:232,0
DA:235,0
DA:236,0
DA:237,0
DA:238,0
DA:239,0
DA:240,0
DA:241,0
DA:242,0
DA:243,0
DA:244,0
DA:245,0
DA:246,0
DA:247,0
DA:248,0
DA:249,0
DA:250,0
DA:251,0
DA:252,0
DA:254,0
DA:255,0
DA:256,0
DA:258,0
DA:259,0
DA:262,0
DA:263,0
DA:266,0
DA:267,0
DA:268,0
DA:271,0
DA:272,0
DA:273,0
DA:274,0
DA:275,0
DA:277,0
DA:278,0
DA:281,0
DA:282,0
DA:283,0
DA:284,0
DA:286,0
DA:287,0
DA:288,0
DA:289,0
DA:290,0
DA:295,0
DA:296,0
DA:297,0
DA:298,0
DA:300,0
DA:302,0
DA:305,0
DA:306,0
DA:307,0
DA:308,0
DA:309,0
DA:310,0
DA:311,0
DA:313,0
DA:316,0
DA:319,0
DA:322,0
DA:333,0
DA:334,0
DA:335,0
DA:338,0
DA:339,0
DA:342,0
DA:343,0
DA:347,0
DA:348,0
DA:351,0
DA:354,0
DA:355,0
DA:356,0
DA:357,0
DA:360,0
DA:361,0
DA:364,0
DA:365,0
DA:366,0
DA:367,0
DA:368,0
DA:370,0
DA:372,0
BRF:0
BRH:0
LF:245
LH:0
end_of_record
SF:/Users/jaredreyes/Developer/minifly/minifly-api/src/lib.rs
FN:16,_RNvCs7k7ABQ2BjtQ_11minifly_api10create_app
FNDA:0,_RNvCs7k7ABQ2BjtQ_11minifly_api10create_app
FNF:1
FNH:0
DA:16,0
DA:17,0
DA:18,0
DA:19,0
DA:20,0
DA:21,0
DA:22,0
BRF:0
BRH:0
LF:7
LH:0
end_of_record
SF:/Users/jaredreyes/Developer/minifly/minifly-api/src/main.rs
FN:22,_RNCNvCscDZMq9zvJMc_11minifly_api4main0B3_
FN:22,_RNvCscDZMq9zvJMc_11minifly_api4main
FN:22,_RNvCslqHMLkZRd4y_11minifly_api4main
FN:22,_RNCNvCslqHMLkZRd4y_11minifly_api4main0B3_
FNDA:0,_RNCNvCscDZMq9zvJMc_11minifly_api4main0B3_
FNDA:0,_RNvCscDZMq9zvJMc_11minifly_api4main
FNDA:0,_RNvCslqHMLkZRd4y_11minifly_api4main
FNDA:0,_RNCNvCslqHMLkZRd4y_11minifly_api4main0B3_
FNF:2
FNH:0
DA:22,0
DA:23,0
DA:24,0
DA:25,0
DA:26,0
DA:27,0
DA:28,0
DA:29,0
DA:30,0
DA:31,0
DA:32,0
DA:33,0
DA:34,0
DA:35,0
DA:36,0
DA:37,0
DA:38,0
DA:39,0
DA:40,0
DA:41,0
DA:42,0
DA:43,0
DA:44,0
DA:45,0
DA:46,0
DA:47,0
DA:48,0
DA:49,0
DA:50,0
DA:51,0
DA:52,0
DA:53,0
DA:54,0
DA:55,0
DA:56,0
DA:57,0
DA:58,0
DA:59,0
DA:60,0
BRF:0
BRH:0
LF:62
LH:0
end_of_record
SF:/Users/jaredreyes/Developer/minifly/minifly-api/src/middleware/auth.rs
FN:18,_RNCNCNvNtNtCscDZMq9zvJMc_11minifly_api10middleware4auth15auth_middleware00B9_
FN:11,_RNCNvNtNtCscDZMq9zvJMc_11minifly_api10middleware4auth15auth_middleware0B7_
FN:8,_RNvNtNtCscDZMq9zvJMc_11minifly_api10middleware4auth15auth_middleware
FN:18,_RNCNCNvNtNtCslqHMLkZRd4y_11minifly_api10middleware4auth15auth_middleware00B9_
FN:11,_RNCNvNtNtCslqHMLkZRd4y_11minifly_api10middleware4auth15auth_middleware0B7_
FN:8,_RNvNtNtCslqHMLkZRd4y_11minifly_api10middleware4auth15auth_middleware
FN:18,_RNCNCNvNtNtCs7k7ABQ2BjtQ_11minifly_api10middleware4auth15auth_middleware00B9_
FN:11,_RNCNvNtNtCs7k7ABQ2BjtQ_11minifly_api10middleware4auth15auth_middleware0B7_
FN:8,_RNvNtNtCs7k7ABQ2BjtQ_11minifly_api10middleware4auth15auth_middleware
FNDA:0,_RNCNCNvNtNtCscDZMq9zvJMc_11minifly_api10middleware4auth15auth_middleware00B9_
FNDA:0,_RNCNvNtNtCscDZMq9zvJMc_11minifly_api10middleware4auth15auth_middleware0B7_
FNDA:0,_RNvNtNtCscDZMq9zvJMc_11minifly_api10middleware4auth15auth_middleware
FNDA:0,_RNCNCNvNtNtCslqHMLkZRd4y_11minifly_api10middleware4auth15auth_middleware00B9_
FNDA:0,_RNCNvNtNtCslqHMLkZRd4y_11minifly_api10middleware4auth15auth_middleware0B7_
FNDA:0,_RNvNtNtCslqHMLkZRd4y_11minifly_api10middleware4auth15auth_middleware
FNDA:0,_RNCNCNvNtNtCs7k7ABQ2BjtQ_11minifly_api10middleware4auth15auth_middleware00B9_
FNDA:0,_RNCNvNtNtCs7k7ABQ2BjtQ_11minifly_api10middleware4auth15auth_middleware0B7_
FNDA:0,_RNvNtNtCs7k7ABQ2BjtQ_11minifly_api10middleware4auth15auth_middleware
FNF:3
FNH:0
DA:8,0
DA:9,0
DA:10,0
DA:11,0
DA:12,0
DA:13,0
DA:14,0
DA:15,0
DA:16,0
DA:17,0
DA:18,0
DA:20,0
DA:21,0
DA:22,0
DA:23,0
DA:27,0
DA:30,0
BRF:0
BRH:0
LF:19
LH:0
end_of_record
SF:/Users/jaredreyes/Developer/minifly/minifly-api/src/middleware/region.rs
FN:47,_RNCNvNtNtCscDZMq9zvJMc_11minifly_api10middleware6region17region_middleware0B7_
FN:47,_RNvNtNtCscDZMq9zvJMc_11minifly_api10middleware6region17region_middleware
FN:99,_RNvNtNtCscDZMq9zvJMc_11minifly_api10middleware6region18add_region_headers
FN:116,_RNvNtNtCscDZMq9zvJMc_11minifly_api10middleware6region18get_machine_region
FN:128,_RNvNtNtCscDZMq9zvJMc_11minifly_api10middleware6region21log_machine_operation
FN:47,_RNvNtNtCslqHMLkZRd4y_11minifly_api10middleware6region17region_middleware
FN:99,_RNvNtNtCslqHMLkZRd4y_11minifly_api10middleware6region18add_region_headers
FN:116,_RNvNtNtCslqHMLkZRd4y_11minifly_api10middleware6region18get_machine_region
FN:128,_RNvNtNtCslqHMLkZRd4y_11minifly_api10middleware6region21log_machine_operation
FN:47,_RNCNvNtNtCslqHMLkZRd4y_11minifly_api10middleware6region17region_middleware0B7_
FN:47,_RNCNvNtNtCs7k7ABQ2BjtQ_11minifly_api10middleware6region17region_middleware0B7_
FN:47,_RNvNtNtCs7k7ABQ2BjtQ_11minifly_api10middleware6region17region_middleware
FN:99,_RNvNtNtCs7k7ABQ2BjtQ_11minifly_api10middleware6region18add_region_headers
FN:116,_RNvNtNtCs7k7ABQ2BjtQ_11minifly_api10middleware6region18get_machine_region
FN:128,_RNvNtNtCs7k7ABQ2BjtQ_11minifly_api10middleware6region21log_machine_operation
FNDA:0,_RNCNvNtNtCscDZMq9zvJMc_11minifly_api10middleware6region17region_middleware0B7_
FNDA:0,_RNvNtNtCscDZMq9zvJMc_11minifly_api10middleware6region17region_middleware
FNDA:0,_RNvNtNtCscDZMq9zvJMc_11minifly_api10middleware6region18add_region_headers
FNDA:0,_RNvNtNtCscDZMq9zvJMc_11minifly_api10middleware6region18get_machine_region
FNDA:0,_RNvNtNtCscDZMq9zvJMc_11minifly_api10middleware6region21log_machine_operation
FNDA:0,_RNvNtNtCslqHMLkZRd4y_11minifly_api10middleware6region17region_middleware
FNDA:0,_RNvNtNtCslqHMLkZRd4y_11minifly_api10middleware6region18add_region_headers
FNDA:0,_RNvNtNtCslqHMLkZRd4y_11minifly_api10middleware6region18get_machine_region
FNDA:0,_RNvNtNtCslqHMLkZRd4y_11minifly_api10middleware6region21log_machine_operation
FNDA:0,_RNCNvNtNtCslqHMLkZRd4y_11minifly_api10middleware6region17region_middleware0B7_
FNDA:0,_RNCNvNtNtCs7k7ABQ2BjtQ_11minifly_api10middleware6region17region_middleware0B7_
FNDA:0,_RNvNtNtCs7k7ABQ2BjtQ_11minifly_api10middleware6region17region_middleware
FNDA:0,_RNvNtNtCs7k7ABQ2BjtQ_11minifly_api10middleware6region18add_region_headers
FNDA:0,_RNvNtNtCs7k7ABQ2BjtQ_11minifly_api10middleware6region18get_machine_region
FNDA:0,_RNvNtNtCs7k7ABQ2BjtQ_11minifly_api10middleware6region21log_machine_operation
FNF:5
FNH:0
DA:47,0
DA:91,0
DA:99,0
DA:100,0
DA:101,0
DA:102,0
DA:104,0
DA:105,0
DA:106,0
DA:107,0
DA:116,0
DA:117,0
DA:118,0
DA:128,0
DA:129,0
DA:134,0
DA:136,0
BRF:0
BRH:0
LF:18
LH:0
end_of_record
SF:/Users/jaredreyes/Developer/minifly/minifly-api/src/state.rs
FN:58,_RNCNvMNtCscDZMq9zvJMc_11minifly_api5stateNtB4_8AppState19generate_machine_id0B6_
FN:67,_RNCNvMNtCscDZMq9zvJMc_11minifly_api5stateNtB4_8AppState20generate_instance_id0B6_
FN:25,_RNCNvMNtCscDZMq9zvJMc_11minifly_api5stateNtB4_8AppState3new0B6_
FN:54,_RNvMNtCscDZMq9zvJMc_11minifly_api5stateNtB2_8AppState19generate_machine_id
FN:79,_RNvMNtCscDZMq9zvJMc_11minifly_api5stateNtB2_8AppState19generate_private_ip
FN:62,_RNvMNtCscDZMq9zvJMc_11minifly_api5stateNtB2_8AppState20generate_instance_id
FN:25,_RNvMNtCscDZMq9zvJMc_11minifly_api5stateNtB2_8AppState3new
FN:58,_RNCNvMNtCslqHMLkZRd4y_11minifly_api5stateNtB4_8AppState19generate_machine_id0B6_
FN:67,_RNCNvMNtCslqHMLkZRd4y_11minifly_api5stateNtB4_8AppState20generate_instance_id0B6_
FN:25,_RNCNvMNtCslqHMLkZRd4y_11minifly_api5stateNtB4_8AppState3new0B6_
FN:54,_RNvMNtCslqHMLkZRd4y_11minifly_api5stateNtB2_8AppState19generate_machine_id
FN:79,_RNvMNtCslqHMLkZRd4y_11minifly_api5stateNtB2_8AppState19generate_private_ip
FN:62,_RNvMNtCslqHMLkZRd4y_11minifly_api5stateNtB2_8AppState20generate_instance_id
FN:25,_RNvMNtCslqHMLkZRd4y_11minifly_api5stateNtB2_8AppState3new
FN:58,_RNCNvMNtCs7k7ABQ2BjtQ_11minifly_api5stateNtB4_8AppState19generate_machine_id0B6_
FN:67,_RNCNvMNtCs7k7ABQ2BjtQ_11minifly_api5stateNtB4_8AppState20generate_instance_id0B6_
FN:25,_RNCNvMNtCs7k7ABQ2BjtQ_11minifly_api5stateNtB4_8AppState3new0B6_
FN:54,_RNvMNtCs7k7ABQ2BjtQ_11minifly_api5stateNtB2_8AppState19generate_machine_id
FN:79,_RNvMNtCs7k7ABQ2BjtQ_11minifly_api5stateNtB2_8AppState19generate_private_ip
FN:62,_RNvMNtCs7k7ABQ2BjtQ_11minifly_api5stateNtB2_8AppState20generate_instance_id
FN:25,_RNvMNtCs7k7ABQ2BjtQ_11minifly_api5stateNtB2_8AppState3new
FNDA:0,_RNCNvMNtCscDZMq9zvJMc_11minifly_api5stateNtB4_8AppState19generate_machine_id0B6_
FNDA:0,_RNCNvMNtCscDZMq9zvJMc_11minifly_api5stateNtB4_8AppState20generate_instance_id0B6_
FNDA:0,_RNCNvMNtCscDZMq9zvJMc_11minifly_api5stateNtB4_8AppState3new0B6_
FNDA:0,_RNvMNtCscDZMq9zvJMc_11minifly_api5stateNtB2_8AppState19generate_machine_id
FNDA:0,_RNvMNtCscDZMq9zvJMc_11minifly_api5stateNtB2_8AppState19generate_private_ip
FNDA:0,_RNvMNtCscDZMq9zvJMc_11minifly_api5stateNtB2_8AppState20generate_instance_id
FNDA:0,_RNvMNtCscDZMq9zvJMc_11minifly_api5stateNtB2_8AppState3new
FNDA:0,_RNCNvMNtCslqHMLkZRd4y_11minifly_api5stateNtB4_8AppState19generate_machine_id0B6_
FNDA:0,_RNCNvMNtCslqHMLkZRd4y_11minifly_api5stateNtB4_8AppState20generate_instance_id0B6_
FNDA:0,_RNCNvMNtCslqHMLkZRd4y_11minifly_api5stateNtB4_8AppState3new0B6_
FNDA:0,_RNvMNtCslqHMLkZRd4y_11minifly_api5stateNtB2_8AppState19generate_machine_id
FNDA:0,_RNvMNtCslqHMLkZRd4y_11minifly_api5stateNtB2_8AppState19generate_private_ip
FNDA:0,_RNvMNtCslqHMLkZRd4y_11minifly_api5stateNtB2_8AppState20generate_instance_id
FNDA:0,_RNvMNtCslqHMLkZRd4y_11minifly_api5stateNtB2_8AppState3new
FNDA:0,_RNCNvMNtCs7k7ABQ2BjtQ_11minifly_api5stateNtB4_8AppState19generate_machine_id0B6_
FNDA:0,_RNCNvMNtCs7k7ABQ2BjtQ_11minifly_api5stateNtB4_8AppState20generate_instance_id0B6_
FNDA:0,_RNCNvMNtCs7k7ABQ2BjtQ_11minifly_api5stateNtB4_8AppState3new0B6_
FNDA:0,_RNvMNtCs7k7ABQ2BjtQ_11minifly_api5stateNtB2_8AppState19generate_machine_id
FNDA:0,_RNvMNtCs7k7ABQ2BjtQ_11minifly_api5stateNtB2_8AppState19generate_private_ip
FNDA:0,_RNvMNtCs7k7ABQ2BjtQ_11minifly_api5stateNtB2_8AppState20generate_instance_id
FNDA:0,_RNvMNtCs7k7ABQ2BjtQ_11minifly_api5stateNtB2_8AppState3new
FNF:7
FNH:0
DA:25,0
DA:27,0
DA:28,0
DA:29,0
DA:30,0
DA:33,0
DA:36,0
DA:39,0
DA:40,0
DA:42,0
DA:43,0
DA:44,0
DA:45,0
DA:46,0
DA:47,0
DA:48,0
DA:49,0
DA:50,0
DA:51,0
DA:52,0
DA:54,0
DA:57,0
DA:58,0
DA:59,0
DA:60,0
DA:62,0
DA:65,0
DA:66,0
DA:67,0
DA:68,0
DA:69,0
DA:70,0
DA:72,0
DA:74,0
DA:75,0
DA:76,0
DA:77,0
DA:79,0
DA:80,0
DA:81,0
DA:83,0
DA:84,0
DA:85,0
DA:86,0
DA:87,0
DA:88,0
DA:89,0
DA:90,0
BRF:0
BRH:0
LF:52
LH:0
end_of_record
SF:/Users/jaredreyes/Developer/minifly/minifly-core/src/lib.rs
FN:14,_RNvNtCs2r58ThK15sg_12minifly_core5testss_17test_app_creation
FN:40,_RNvNtCs2r58ThK15sg_12minifly_core5testss_23test_create_app_request
FN:30,_RNvNtCs2r58ThK15sg_12minifly_core5testss_29test_app_status_serialization
FNDA:0,_RNvNtCs2r58ThK15sg_12minifly_core5testss_17test_app_creation
FNDA:0,_RNvNtCs2r58ThK15sg_12minifly_core5testss_23test_create_app_request
FNDA:0,_RNvNtCs2r58ThK15sg_12minifly_core5testss_29test_app_status_serialization
FNF:3
FNH:0
DA:14,0
DA:15,0
DA:16,0
DA:17,0
DA:18,0
DA:19,0
DA:20,0
DA:21,0
DA:22,0
DA:23,0
DA:24,0
DA:25,0
DA:26,0
DA:27,0
DA:30,0
DA:31,0
DA:32,0
DA:33,0
DA:35,0
DA:36,0
DA:37,0
DA:40,0
DA:41,0
DA:42,0
DA:43,0
DA:44,0
DA:45,0
DA:46,0
DA:47,0
DA:48,0
DA:49,0
BRF:0
BRH:0
LF:31
LH:0
end_of_record
SF:/Users/jaredreyes/Developer/minifly/minifly-litefs/src/config.rs
FN:147,_RNvMs_NtCs1T1XDlYh7DN_14minifly_litefs6configNtB4_12LiteFSConfig13for_local_dev
FN:186,_RNvMs_NtCs1T1XDlYh7DN_14minifly_litefs6configNtB4_12LiteFSConfig7to_yaml
FN:190,_RNvMs_NtCs1T1XDlYh7DN_14minifly_litefs6configNtB4_12LiteFSConfig9from_yaml
FN:94,_RNvNtCs1T1XDlYh7DN_14minifly_litefs6config13default_debug
FN:96,_RNvNtCs1T1XDlYh7DN_14minifly_litefs6config16default_compress
FN:103,_RNvNtCs1T1XDlYh7DN_14minifly_litefs6config17default_log_level
FN:97,_RNvNtCs1T1XDlYh7DN_14minifly_litefs6config17default_retention
FN:101,_RNvNtCs1T1XDlYh7DN_14minifly_litefs6config18default_lease_type
FN:102,_RNvNtCs1T1XDlYh7DN_14minifly_litefs6config18default_log_format
FN:99,_RNvNtCs1T1XDlYh7DN_14minifly_litefs6config18default_proxy_addr
FN:95,_RNvNtCs1T1XDlYh7DN_14minifly_litefs6config19default_allow_other
FN:100,_RNvNtCs1T1XDlYh7DN_14minifly_litefs6config19default_passthrough
FN:98,_RNvNtCs1T1XDlYh7DN_14minifly_litefs6config34default_retention_monitor_interval
FN:106,_RNvXNtCs1T1XDlYh7DN_14minifly_litefs6configNtB2_12LiteFSConfigNtNtCs9toYwWYUYfn_4core7default7Default7default
FNDA:0,_RNvMs_NtCs1T1XDlYh7DN_14minifly_litefs6configNtB4_12LiteFSConfig13for_local_dev
FNDA:0,_RNvMs_NtCs1T1XDlYh7DN_14minifly_litefs6configNtB4_12LiteFSConfig7to_yaml
FNDA:0,_RNvMs_NtCs1T1XDlYh7DN_14minifly_litefs6configNtB4_12LiteFSConfig9from_yaml
FNDA:0,_RNvNtCs1T1XDlYh7DN_14minifly_litefs6config13default_debug
FNDA:0,_RNvNtCs1T1XDlYh7DN_14minifly_litefs6config16default_compress
FNDA:0,_RNvNtCs1T1XDlYh7DN_14minifly_litefs6config17default_log_level
FNDA:0,_RNvNtCs1T1XDlYh7DN_14minifly_litefs6config17default_retention
FNDA:0,_RNvNtCs1T1XDlYh7DN_14minifly_litefs6config18default_lease_type
FNDA:0,_RNvNtCs1T1XDlYh7DN_14minifly_litefs6config18default_log_format
FNDA:0,_RNvNtCs1T1XDlYh7DN_14minifly_litefs6config18default_proxy_addr
FNDA:0,_RNvNtCs1T1XDlYh7DN_14minifly_litefs6config19default_allow_other
FNDA:0,_RNvNtCs1T1XDlYh7DN_14minifly_litefs6config19default_passthrough
FNDA:0,_RNvNtCs1T1XDlYh7DN_14minifly_litefs6config34default_retention_monitor_interval
FNDA:0,_RNvXNtCs1T1XDlYh7DN_14minifly_litefs6configNtB2_12LiteFSConfigNtNtCs9toYwWYUYfn_4core7default7Default7default
FNF:14
FNH:0
DA:94,0
DA:95,0
DA:96,0
DA:97,0
DA:98,0
DA:99,0
DA:100,0
DA:101,0
DA:102,0
DA:103,0
DA:106,0
DA:107,0
DA:108,0
DA:109,0
DA:110,0
DA:111,0
DA:112,0
DA:113,0
DA:114,0
DA:115,0
DA:116,0
DA:117,0
DA:118,0
DA:119,0
DA:120,0
DA:121,0
DA:122,0
DA:123,0
DA:124,0
DA:125,0
DA:126,0
DA:127,0
DA:128,0
DA:129,0
DA:130,0
DA:131,0
DA:132,0
DA:133,0
DA:134,0
DA:135,0
DA:136,0
DA:137,0
DA:138,0
DA:139,0
DA:140,0
DA:141,0
DA:142,0
DA:143,0
DA:147,0
DA:148,0
DA:149,0
DA:150,0
DA:151,0
DA:152,0
DA:153,0
DA:154,0
DA:155,0
DA:156,0
DA:157,0
DA:158,0
DA:159,0
DA:160,0
DA:161,0
DA:162,0
DA:163,0
DA:164,0
DA:165,0
DA:166,0
DA:167,0
DA:168,0
DA:169,0
DA:170,0
DA:171,0
DA:172,0
DA:173,0
DA:174,0
DA:175,0
DA:176,0
DA:177,0
DA:178,0
DA:179,0
DA:180,0
DA:181,0
DA:182,0
DA:183,0
DA:184,0
DA:186,0
DA:187,0
DA:188,0
DA:190,0
DA:191,0
DA:192,0
BRF:0
BRH:0
LF:92
LH:0
end_of_record
SF:/Users/jaredreyes/Developer/minifly/minifly-litefs/src/manager.rs
FN:211,_RNvMNtCs1T1XDlYh7DN_14minifly_litefs7managerNtB2_13LiteFSManager10is_running
FN:246,_RNvMNtCs1T1XDlYh7DN_14minifly_litefs7managerNtB2_13LiteFSManager13get_proxy_url
FN:242,_RNvMNtCs1T1XDlYh7DN_14minifly_litefs7managerNtB2_13LiteFSManager14get_mount_path
FN:191,_RNvMNtCs1T1XDlYh7DN_14minifly_litefs7managerNtB2_13LiteFSManager16stop_for_machine
FN:162,_RNvMNtCs1T1XDlYh7DN_14minifly_litefs7managerNtB2_13LiteFSManager17start_for_machine
FN:20,_RNvMNtCs1T1XDlYh7DN_14minifly_litefs7managerNtB2_13LiteFSManager3new
FN:215,_RNvMNtCs1T1XDlYh7DN_14minifly_litefs7managerNtB2_13LiteFSManager8stop_all
FN:114,_RNCNCNvMNtCs1T1XDlYh7DN_14minifly_litefs7managerNtB6_13LiteFSManager15download_litefs00B8_
FN:126,_RNCNCNvMNtCs1T1XDlYh7DN_14minifly_litefs7managerNtB6_13LiteFSManager15download_litefs0s0_0B8_
FN:136,_RNCNCNvMNtCs1T1XDlYh7DN_14minifly_litefs7managerNtB6_13LiteFSManager15download_litefs0s1_0B8_
FN:151,_RNCNCNvMNtCs1T1XDlYh7DN_14minifly_litefs7managerNtB6_13LiteFSManager15download_litefs0s2_0B8_
FN:155,_RNCNCNvMNtCs1T1XDlYh7DN_14minifly_litefs7managerNtB6_13LiteFSManager15download_litefs0s3_0B8_
FN:121,_RNCNCNvMNtCs1T1XDlYh7DN_14minifly_litefs7managerNtB6_13LiteFSManager15download_litefs0s_0B8_
FN:23,_RNCNCNvMNtCs1T1XDlYh7DN_14minifly_litefs7managerNtB6_13LiteFSManager3new00B8_
FN:27,_RNCNCNvMNtCs1T1XDlYh7DN_14minifly_litefs7managerNtB6_13LiteFSManager3new0s_0B8_
FN:86,_RNCNvMNtCs1T1XDlYh7DN_14minifly_litefs7managerNtB4_13LiteFSManager15download_litefs0B6_
FN:20,_RNCNvMNtCs1T1XDlYh7DN_14minifly_litefs7managerNtB4_13LiteFSManager3new0B6_
FN:215,_RNCNvMNtCs1T1XDlYh7DN_14minifly_litefs7managerNtB4_13LiteFSManager8stop_all0B6_
FN:86,_RNvMNtCs1T1XDlYh7DN_14minifly_litefs7managerNtB2_13LiteFSManager15download_litefs
FN:178,_RNCNCNvMNtCs1T1XDlYh7DN_14minifly_litefs7managerNtB6_13LiteFSManager17start_for_machine00B8_
FN:182,_RNCNCNvMNtCs1T1XDlYh7DN_14minifly_litefs7managerNtB6_13LiteFSManager17start_for_machine0s0_0B8_
FN:180,_RNCNCNvMNtCs1T1XDlYh7DN_14minifly_litefs7managerNtB6_13LiteFSManager17start_for_machine0s_0B8_
FN:211,_RNCNvMNtCs1T1XDlYh7DN_14minifly_litefs7managerNtB4_13LiteFSManager10is_running0B6_
FN:191,_RNCNvMNtCs1T1XDlYh7DN_14minifly_litefs7managerNtB4_13LiteFSManager16stop_for_machine0B6_
FN:162,_RNCNvMNtCs1T1XDlYh7DN_14minifly_litefs7managerNtB4_13LiteFSManager17start_for_machine0B6_
FN:23,_RNCNCNvMNtCs1T1XDlYh7DN_14minifly_litefs7managerNtB6_13LiteFSManager3new00CslqHMLkZRd4y_11minifly_api
FN:27,_RNCNCNvMNtCs1T1XDlYh7DN_14minifly_litefs7managerNtB6_13LiteFSManager3new0s_0CslqHMLkZRd4y_11minifly_api
FN:20,_RNCNvMNtCs1T1XDlYh7DN_14minifly_litefs7managerNtB4_13LiteFSManager3new0CslqHMLkZRd4y_11minifly_api
FNDA:0,_RNvMNtCs1T1XDlYh7DN_14minifly_litefs7managerNtB2_13LiteFSManager10is_running
FNDA:0,_RNvMNtCs1T1XDlYh7DN_14minifly_litefs7managerNtB2_13LiteFSManager13get_proxy_url
FNDA:0,_RNvMNtCs1T1XDlYh7DN_14minifly_litefs7managerNtB2_13LiteFSManager14get_mount_path
FNDA:0,_RNvMNtCs1T1XDlYh7DN_14minifly_litefs7managerNtB2_13LiteFSManager16stop_for_machine
FNDA:0,_RNvMNtCs1T1XDlYh7DN_14minifly_litefs7managerNtB2_13LiteFSManager17start_for_machine
FNDA:0,_RNvMNtCs1T1XDlYh7DN_14minifly_litefs7managerNtB2_13LiteFSManager3new
FNDA:0,_RNvMNtCs1T1XDlYh7DN_14minifly_litefs7managerNtB2_13LiteFSManager8stop_all
FNDA:0,_RNCNCNvMNtCs1T1XDlYh7DN_14minifly_litefs7managerNtB6_13LiteFSManager15download_litefs00B8_
FNDA:0,_RNCNCNvMNtCs1T1XDlYh7DN_14minifly_litefs7managerNtB6_13LiteFSManager15download_litefs0s0_0B8_
FNDA:0,_RNCNCNvMNtCs1T1XDlYh7DN_14minifly_litefs7managerNtB6_13LiteFSManager15download_litefs0s1_0B8_
FNDA:0,_RNCNCNvMNtCs1T1XDlYh7DN_14minifly_litefs7managerNtB6_13LiteFSManager15download_litefs0s2_0B8_
FNDA:0,_RNCNCNvMNtCs1T1XDlYh7DN_14minifly_litefs7managerNtB6_13LiteFSManager15download_litefs0s3_0B8_
FNDA:0,_RNCNCNvMNtCs1T1XDlYh7DN_14minifly_litefs7managerNtB6_13LiteFSManager15download_litefs0s_0B8_
FNDA:0,_RNCNCNvMNtCs1T1XDlYh7DN_14minifly_litefs7managerNtB6_13LiteFSManager3new00B8_
FNDA:0,_RNCNCNvMNtCs1T1XDlYh7DN_14minifly_litefs7managerNtB6_13LiteFSManager3new0s_0B8_
FNDA:0,_RNCNvMNtCs1T1XDlYh7DN_14minifly_litefs7managerNtB4_13LiteFSManager15download_litefs0B6_
FNDA:0,_RNCNvMNtCs1T1XDlYh7DN_14minifly_litefs7managerNtB4_13LiteFSManager3new0B6_
FNDA:0,_RNCNvMNtCs1T1XDlYh7DN_14minifly_litefs7managerNtB4_13LiteFSManager8stop_all0B6_
FNDA:0,_RNvMNtCs1T1XDlYh7DN_14minifly_litefs7managerNtB2_13LiteFSManager15download_litefs
FNDA:0,_RNCNCNvMNtCs1T1XDlYh7DN_14minifly_litefs7managerNtB6_13LiteFSManager17start_for_machine00B8_
FNDA:0,_RNCNCNvMNtCs1T1XDlYh7DN_14minifly_litefs7managerNtB6_13LiteFSManager17start_for_machine0s0_0B8_
FNDA:0,_RNCNCNvMNtCs1T1XDlYh7DN_14minifly_litefs7managerNtB6_13LiteFSManager17start_for_machine0s_0B8_
FNDA:0,_RNCNvMNtCs1T1XDlYh7DN_14minifly_litefs7managerNtB4_13LiteFSManager10is_running0B6_
FNDA:0,_RNCNvMNtCs1T1XDlYh7DN_14minifly_litefs7managerNtB4_13LiteFSManager16stop_for_machine0B6_
FNDA:0,_RNCNvMNtCs1T1XDlYh7DN_14minifly_litefs7managerNtB4_13LiteFSManager17start_for_machine0B6_
FNDA:0,_RNCNCNvMNtCs1T1XDlYh7DN_14minifly_litefs7managerNtB6_13LiteFSManager3new00CslqHMLkZRd4y_11minifly_api
FNDA:0,_RNCNCNvMNtCs1T1XDlYh7DN_14minifly_litefs7managerNtB6_13LiteFSManager3new0s_0CslqHMLkZRd4y_11minifly_api
FNDA:0,_RNCNvMNtCs1T1XDlYh7DN_14minifly_litefs7managerNtB4_13LiteFSManager3new0CslqHMLkZRd4y_11minifly_api
FNF:25
FNH:0
DA:20,0
DA:21,0
DA:22,0
DA:23,0
DA:25,0
DA:26,0
DA:27,0
DA:29,0
DA:32,0
DA:33,0
DA:34,0
DA:35,0
DA:36,0
DA:37,0
DA:38,0
DA:39,0
DA:41,0
DA:44,0
DA:47,0
DA:49,0
DA:50,0
DA:51,0
DA:52,0
DA:53,0
DA:54,0
DA:56,0
DA:59,0
DA:60,0
DA:62,0
DA:63,0
DA:65,0
DA:68,0
DA:69,0
DA:70,0
DA:71,0
DA:72,0
DA:73,0
DA:74,0
DA:76,0
DA:77,0
DA:78,0
DA:79,0
DA:80,0
DA:81,0
DA:82,0
DA:84,0
DA:86,0
DA:87,0
DA:88,0
DA:89,0
DA:90,0
DA:92,0
DA:95,0
DA:96,0
DA:97,0
DA:98,0
DA:99,0
DA:100,0
DA:102,0
DA:105,0
DA:106,0
DA:107,0
DA:108,0
DA:109,0
DA:110,0
DA:113,0
DA:114,0
DA:116,0
DA:117,0
DA:118,0
DA:120,0
DA:121,0
DA:124,0
DA:125,0
DA:126,0
DA:129,0
DA:130,0
DA:131,0
DA:132,0
DA:133,0
DA:134,0
DA:135,0
DA:136,0
DA:138,0
DA:139,0
DA:140,0
DA:141,0
DA:142,0
DA:143,0
DA:144,0
DA:148,0
DA:149,0
DA:150,0
DA:151,0
DA:152,0
DA:153,0
DA:154,0
DA:155,0
DA:158,0
DA:159,0
DA:160,0
DA:162,0
DA:163,0
DA:164,0
DA:166,0
DA:167,0
DA:168,0
DA:169,0
DA:170,0
DA:172,0
DA:173,0
DA:174,0
DA:175,0
DA:176,0
DA:177,0
DA:178,0
DA:179,0
DA:180,0
DA:181,0
DA:182,0
DA:184,0
DA:185,0
DA:186,0
DA:188,0
DA:189,0
DA:191,0
DA:192,0
DA:195,0
DA:196,0
DA:198,0
DA:199,0
DA:200,0
DA:203,0
DA:204,0
DA:205,0
DA:206,0
DA:208,0
DA:209,0
DA:211,0
DA:212,0
DA:213,0
DA:215,0
DA:216,0
DA:219,0
DA:220,0
DA:221,0
DA:222,0
DA:223,0
DA:224,0
DA:226,0
DA:227,0
DA:228,0
DA:231,0
DA:232,0
DA:233,0
DA:234,0
DA:236,0
DA:237,0
DA:239,0
DA:240,0
DA:242,0
DA:243,0
DA:244,0
DA:246,0
DA:247,0
DA:248,0
BRF:0
BRH:0
LF:183
LH:0
end_of_record
SF:/Users/jaredreyes/Developer/minifly/minifly-litefs/src/process.rs
FN:170,_RNCNvMs0_NtCs1T1XDlYh7DN_14minifly_litefs7processNtB7_20LiteFSProcessManager8stop_all0B9_
FN:81,_RNvMNtCs1T1XDlYh7DN_14minifly_litefs7processNtB2_13LiteFSProcess10is_running
FN:18,_RNvMNtCs1T1XDlYh7DN_14minifly_litefs7processNtB2_13LiteFSProcess3new
FN:54,_RNvMNtCs1T1XDlYh7DN_14minifly_litefs7processNtB2_13LiteFSProcess4stop
FN:27,_RNvMNtCs1T1XDlYh7DN_14minifly_litefs7processNtB2_13LiteFSProcess5start
FN:160,_RNvMs0_NtCs1T1XDlYh7DN_14minifly_litefs7processNtB5_20LiteFSProcessManager10is_running
FN:150,_RNvMs0_NtCs1T1XDlYh7DN_14minifly_litefs7processNtB5_20LiteFSProcessManager11stop_litefs
FN:126,_RNvMs0_NtCs1T1XDlYh7DN_14minifly_litefs7processNtB5_20LiteFSProcessManager12start_litefs
FN:119,_RNvMs0_NtCs1T1XDlYh7DN_14minifly_litefs7processNtB5_20LiteFSProcessManager3new
FN:170,_RNvMs0_NtCs1T1XDlYh7DN_14minifly_litefs7processNtB5_20LiteFSProcessManager8stop_all
FN:131,_RNCNCNvMs0_NtCs1T1XDlYh7DN_14minifly_litefs7processNtB9_20LiteFSProcessManager12start_litefs00Bb_
FN:134,_RNCNCNvMs0_NtCs1T1XDlYh7DN_14minifly_litefs7processNtB9_20LiteFSProcessManager12start_litefs0s_0Bb_
FN:160,_RNCNvMs0_NtCs1T1XDlYh7DN_14minifly_litefs7processNtB7_20LiteFSProcessManager10is_running0B9_
FN:150,_RNCNvMs0_NtCs1T1XDlYh7DN_14minifly_litefs7processNtB7_20LiteFSProcessManager11stop_litefs0B9_
FN:126,_RNCNvMs0_NtCs1T1XDlYh7DN_14minifly_litefs7processNtB7_20LiteFSProcessManager12start_litefs0B9_
FN:106,_RNvXs_NtCs1T1XDlYh7DN_14minifly_litefs7processNtB4_13LiteFSProcessNtNtNtCs9toYwWYUYfn_4core3ops4drop4Drop4drop
FNDA:0,_RNCNvMs0_NtCs1T1XDlYh7DN_14minifly_litefs7processNtB7_20LiteFSProcessManager8stop_all0B9_
FNDA:0,_RNvMNtCs1T1XDlYh7DN_14minifly_litefs7processNtB2_13LiteFSProcess10is_running
FNDA:0,_RNvMNtCs1T1XDlYh7DN_14minifly_litefs7processNtB2_13LiteFSProcess3new
FNDA:0,_RNvMNtCs1T1XDlYh7DN_14minifly_litefs7processNtB2_13LiteFSProcess4stop
FNDA:0,_RNvMNtCs1T1XDlYh7DN_14minifly_litefs7processNtB2_13LiteFSProcess5start
FNDA:0,_RNvMs0_NtCs1T1XDlYh7DN_14minifly_litefs7processNtB5_20LiteFSProcessManager10is_running
FNDA:0,_RNvMs0_NtCs1T1XDlYh7DN_14minifly_litefs7processNtB5_20LiteFSProcessManager11stop_litefs
FNDA:0,_RNvMs0_NtCs1T1XDlYh7DN_14minifly_litefs7processNtB5_20LiteFSProcessManager12start_litefs
FNDA:0,_RNvMs0_NtCs1T1XDlYh7DN_14minifly_litefs7processNtB5_20LiteFSProcessManager3new
FNDA:0,_RNvMs0_NtCs1T1XDlYh7DN_14minifly_litefs7processNtB5_20LiteFSProcessManager8stop_all
FNDA:0,_RNCNCNvMs0_NtCs1T1XDlYh7DN_14minifly_litefs7processNtB9_20LiteFSProcessManager12start_litefs00Bb_
FNDA:0,_RNCNCNvMs0_NtCs1T1XDlYh7DN_14minifly_litefs7processNtB9_20LiteFSProcessManager12start_litefs0s_0Bb_
FNDA:0,_RNCNvMs0_NtCs1T1XDlYh7DN_14minifly_litefs7processNtB7_20LiteFSProcessManager10is_running0B9_
FNDA:0,_RNCNvMs0_NtCs1T1XDlYh7DN_14minifly_litefs7processNtB7_20LiteFSProcessManager11stop_litefs0B9_
FNDA:0,_RNCNvMs0_NtCs1T1XDlYh7DN_14minifly_litefs7processNtB7_20LiteFSProcessManager12start_litefs0B9_
FNDA:0,_RNvXs_NtCs1T1XDlYh7DN_14minifly_litefs7processNtB4_13LiteFSProcessNtNtNtCs9toYwWYUYfn_4core3ops4drop4Drop4drop
FNF:16
FNH:0
DA:18,0
DA:19,0
DA:20,0
DA:21,0
DA:22,0
DA:23,0
DA:24,0
DA:25,0
DA:27,0
DA:28,0
DA:29,0
DA:30,0
DA:31,0
DA:32,0
DA:34,0
DA:35,0
DA:36,0
DA:37,0
DA:38,0
DA:39,0
DA:40,0
DA:41,0
DA:42,0
DA:43,0
DA:44,0
DA:45,0
DA:47,0
DA:48,0
DA:49,0
DA:52,0
DA:54,0
DA:55,0
DA:56,0
DA:58,0
DA:60,0
DA:61,0
DA:62,0
DA:63,0
DA:65,0
DA:66,0
DA:67,0
DA:71,0
DA:72,0
DA:73,0
DA:77,0
DA:79,0
DA:81,0
DA:82,0
DA:83,0
DA:86,0
DA:87,0
DA:91,0
DA:95,0
DA:96,0
DA:100,0
DA:102,0
DA:106,0
DA:107,0
DA:108,0
DA:109,0
DA:110,0
DA:119,0
DA:120,0
DA:121,0
DA:122,0
DA:123,0
DA:124,0
DA:126,0
DA:127,0
DA:130,0
DA:131,0
DA:133,0
DA:134,0
DA:136,0
DA:138,0
DA:139,0
DA:140,0
DA:141,0
DA:142,0
DA:143,0
DA:144,0
DA:145,0
DA:146,0
DA:147,0
DA:148,0
DA:150,0
DA:151,0
DA:153,0
DA:154,0
DA:155,0
DA:157,0
DA:158,0
DA:160,0
DA:161,0
DA:163,0
DA:164,0
DA:166,0
DA:168,0
DA:170,0
DA:171,0
DA:173,0
DA:174,0
DA:175,0
DA:176,0
DA:177,0
DA:180,0
DA:181,0
BRF:0
BRH:0
LF:113
LH:0
end_of_record
SF:/Users/jaredreyes/Developer/minifly/minifly-litefs/src/server.rs
FN:174,_RNCNCNvNtCs1T1XDlYh7DN_14minifly_litefs6server10run_server00B7_
FN:179,_RNCNCNvNtCs1T1XDlYh7DN_14minifly_litefs6server10run_server0s_0B7_
FN:168,_RNCNvNtCs1T1XDlYh7DN_14minifly_litefs6server10run_server0B5_
FN:155,_RNvNtCs1T1XDlYh7DN_14minifly_litefs6server10get_status
FN:168,_RNvNtCs1T1XDlYh7DN_14minifly_litefs6server10run_server
FN:73,_RNvNtCs1T1XDlYh7DN_14minifly_litefs6server12get_instance
FN:54,_RNvNtCs1T1XDlYh7DN_14minifly_litefs6server12health_check
FN:41,_RNvNtCs1T1XDlYh7DN_14minifly_litefs6server13create_router
FN:133,_RNvNtCs1T1XDlYh7DN_14minifly_litefs6server13stop_instance
FN:62,_RNvNtCs1T1XDlYh7DN_14minifly_litefs6server14list_instances
FN:102,_RNvNtCs1T1XDlYh7DN_14minifly_litefs6server14start_instance
FN:158,_RNCNvNtCs1T1XDlYh7DN_14minifly_litefs6server10get_status0B5_
FN:76,_RNCNvNtCs1T1XDlYh7DN_14minifly_litefs6server12get_instance0B5_
FN:54,_RNCNvNtCs1T1XDlYh7DN_14minifly_litefs6server12health_check0B5_
FN:136,_RNCNvNtCs1T1XDlYh7DN_14minifly_litefs6server13stop_instance0B5_
FN:64,_RNCNvNtCs1T1XDlYh7DN_14minifly_litefs6server14list_instances0B5_
FN:106,_RNCNvNtCs1T1XDlYh7DN_14minifly_litefs6server14start_instance0B5_
FNDA:0,_RNCNCNvNtCs1T1XDlYh7DN_14minifly_litefs6server10run_server00B7_
FNDA:0,_RNCNCNvNtCs1T1XDlYh7DN_14minifly_litefs6server10run_server0s_0B7_
FNDA:0,_RNCNvNtCs1T1XDlYh7DN_14minifly_litefs6server10run_server0B5_
FNDA:0,_RNvNtCs1T1XDlYh7DN_14minifly_litefs6server10get_status
FNDA:0,_RNvNtCs1T1XDlYh7DN_14minifly_litefs6server10run_server
FNDA:0,_RNvNtCs1T1XDlYh7DN_14minifly_litefs6server12get_instance
FNDA:0,_RNvNtCs1T1XDlYh7DN_14minifly_litefs6server12health_check
FNDA:0,_RNvNtCs1T1XDlYh7DN_14minifly_litefs6server13create_router
FNDA:0,_RNvNtCs1T1XDlYh7DN_14minifly_litefs6server13stop_instance
FNDA:0,_RNvNtCs1T1XDlYh7DN_14minifly_litefs6server14list_instances
FNDA:0,_RNvNtCs1T1XDlYh7DN_14minifly_litefs6server14start_instance
FNDA:0,_RNCNvNtCs1T1XDlYh7DN_14minifly_litefs6server10get_status0B5_
FNDA:0,_RNCNvNtCs1T1XDlYh7DN_14minifly_litefs6server12get_instance0B5_
FNDA:0,_RNCNvNtCs1T1XDlYh7DN_14minifly_litefs6server12health_check0B5_
FNDA:0,_RNCNvNtCs1T1XDlYh7DN_14minifly_litefs6server13stop_instance0B5_
FNDA:0,_RNCNvNtCs1T1XDlYh7DN_14minifly_litefs6server14list_instances0B5_
FNDA:0,_RNCNvNtCs1T1XDlYh7DN_14minifly_litefs6server14start_instance0B5_
FNF:17
FNH:0
DA:41,0
DA:42,0
DA:43,0
DA:44,0
DA:45,0
DA:46,0
DA:47,0
DA:48,0
DA:49,0
DA:50,0
DA:51,0
DA:52,0
DA:54,0
DA:55,0
DA:56,0
DA:57,0
DA:58,0
DA:59,0
DA:60,0
DA:62,0
DA:63,0
DA:64,0
DA:65,0
DA:66,0
DA:67,0
DA:68,0
DA:69,0
DA:70,0
DA:71,0
DA:73,0
DA:74,0
DA:75,0
DA:76,0
DA:77,0
DA:79,0
DA:80,0
DA:81,0
DA:82,0
DA:83,0
DA:84,0
DA:85,0
DA:86,0
DA:87,0
DA:88,0
DA:89,0
DA:90,0
DA:91,0
DA:92,0
DA:93,0
DA:94,0
DA:95,0
DA:96,0
DA:97,0
DA:98,0
DA:99,0
DA:100,0
DA:102,0
DA:103,0
DA:104,0
DA:105,0
DA:106,0
DA:107,0
DA:109,0
DA:110,0
DA:111,0
DA:112,0
DA:113,0
DA:114,0
DA:115,0
DA:116,0
DA:117,0
DA:118,0
DA:119,0
DA:120,0
DA:121,0
DA:123,0
DA:124,0
DA:125,0
DA:126,0
DA:127,0
DA:128,0
DA:131,0
DA:133,0
DA:134,0
DA:135,0
DA:136,0
DA:137,0
DA:139,0
DA:140,0
DA:141,0
DA:142,0
DA:143,0
DA:145,0
DA:146,0
DA:147,0
DA:148,0
DA:149,0
DA:150,0
DA:153,0
DA:155,0
DA:156,0
DA:157,0
DA:158,0
DA:159,0
DA:161,0
DA:162,0
DA:163,0
DA:164,0
DA:165,0
DA:166,0
DA:168,0
DA:169,0
DA:170,0
DA:171,0
DA:173,0
DA:174,0
DA:176,0
DA:178,0
DA:179,0
DA:181,0
DA:182,0
BRF:0
BRH:0
LF:130
LH:0
end_of_record
SF:/Users/jaredreyes/Developer/minifly/minifly-logging/src/lib.rs
FN:85,_RNCNvCslzLWaO0NM7J_15minifly_logging12init_logging0B3_
FN:69,_RNCNvMs_CslzLWaO0NM7J_15minifly_loggingNtB6_13LoggingConfig8from_env0B6_
FN:70,_RNCNvMs_CslzLWaO0NM7J_15minifly_loggingNtB6_13LoggingConfig8from_envs_0B6_
FN:83,_RNvCslzLWaO0NM7J_15minifly_logging12init_logging
FN:185,_RNvCslzLWaO0NM7J_15minifly_logging12new_error_id
FN:180,_RNvCslzLWaO0NM7J_15minifly_logging14new_request_id
FN:175,_RNvCslzLWaO0NM7J_15minifly_logging18new_correlation_id
FN:51,_RNvMs_CslzLWaO0NM7J_15minifly_loggingNtB4_13LoggingConfig10with_level
FN:45,_RNvMs_CslzLWaO0NM7J_15minifly_loggingNtB4_13LoggingConfig11with_format
FN:57,_RNvMs_CslzLWaO0NM7J_15minifly_loggingNtB4_13LoggingConfig16with_environment
FN:37,_RNvMs_CslzLWaO0NM7J_15minifly_loggingNtB4_13LoggingConfig3new
FN:63,_RNvMs_CslzLWaO0NM7J_15minifly_loggingNtB4_13LoggingConfig8from_env
FN:24,_RNvXCslzLWaO0NM7J_15minifly_loggingNtB2_13LoggingConfigNtNtCs9toYwWYUYfn_4core7default7Default7default
FNDA:0,_RNCNvCslzLWaO0NM7J_15minifly_logging12init_logging0B3_
FNDA:0,_RNCNvMs_CslzLWaO0NM7J_15minifly_loggingNtB6_13LoggingConfig8from_env0B6_
FNDA:0,_RNCNvMs_CslzLWaO0NM7J_15minifly_loggingNtB6_13LoggingConfig8from_envs_0B6_
FNDA:0,_RNvCslzLWaO0NM7J_15minifly_logging12init_logging
FNDA:0,_RNvCslzLWaO0NM7J_15minifly_logging12new_error_id
FNDA:0,_RNvCslzLWaO0NM7J_15minifly_logging14new_request_id
FNDA:0,_RNvCslzLWaO0NM7J_15minifly_logging18new_correlation_id
FNDA:0,_RNvMs_CslzLWaO0NM7J_15minifly_loggingNtB4_13LoggingConfig10with_level
FNDA:0,_RNvMs_CslzLWaO0NM7J_15minifly_loggingNtB4_13LoggingConfig11with_format
FNDA:0,_RNvMs_CslzLWaO0NM7J_15minifly_loggingNtB4_13LoggingConfig16with_environment
FNDA:0,_RNvMs_CslzLWaO0NM7J_15minifly_loggingNtB4_13LoggingConfig3new
FNDA:0,_RNvMs_CslzLWaO0NM7J_15minifly_loggingNtB4_13LoggingConfig8from_env
FNDA:0,_RNvXCslzLWaO0NM7J_15minifly_loggingNtB2_13LoggingConfigNtNtCs9toYwWYUYfn_4core7default7Default7default
FNF:13
FNH:0
DA:24,0
DA:25,0
DA:26,0
DA:27,0
DA:28,0
DA:29,0
DA:30,0
DA:31,0
DA:32,0
DA:37,0
DA:38,0
DA:39,0
DA:40,0
DA:41,0
DA:42,0
DA:45,0
DA:46,0
DA:47,0
DA:48,0
DA:51,0
DA:52,0
DA:53,0
DA:54,0
DA:57,0
DA:58,0
DA:59,0
DA:60,0
DA:63,0
DA:64,0
DA:65,0
DA:66,0
DA:69,0
DA:70,0
DA:71,0
DA:72,0
DA:73,0
DA:74,0
DA:75,0
DA:76,0
DA:77,0
DA:78,0
DA:79,0
DA:83,0
DA:84,0
DA:85,0
DA:86,0
DA:87,0
DA:88,0
DA:89,0
DA:90,0
DA:91,0
DA:92,0
DA:93,0
DA:94,0
DA:95,0
DA:96,0
DA:97,0
DA:98,0
DA:99,0
DA:100,0
DA:101,0
DA:102,0
DA:103,0
DA:104,0
DA:105,0
DA:106,0
DA:107,0
DA:108,0
DA:109,0
DA:110,0
DA:111,0
DA:112,0
DA:113,0
DA:114,0
DA:118,0
DA:124,0
DA:127,0
DA:128,0
DA:175,0
DA:176,0
DA:177,0
DA:180,0
DA:181,0
DA:182,0
DA:185,0
DA:186,0
DA:187,0
BRF:0
BRH:0
LF:90
LH:0
end_of_record